

Microchip Technology PIC LITE Macro Assembler V1.45 build -152302408 
                                                                                               Mon May 07 04:35:54 2018

Microchip Technology Omniscient Code Generator v1.45 (Free mode) build 201711160504
     1                           	processor	16F18346
     2                           	opt	pw 120
     3                           	opt	lm
     4                           	psect	idataBANK0,global,class=CODE,delta=2
     5                           	psect	stringtext1,global,class=STRCODE,delta=2
     6                           	psect	stringtext2,global,class=STRCODE,delta=2
     7                           	psect	bitnvBANK0,global,bit,class=BANK0,space=1,delta=1
     8                           	psect	cinit,global,class=CODE,merge=1,delta=2
     9                           	psect	bitbssCOMMON,global,bit,class=COMMON,space=1,delta=1
    10                           	psect	bssBANK0,global,class=BANK0,space=1,delta=1
    11                           	psect	dataBANK0,global,class=BANK0,space=1,delta=1
    12                           	psect	bssBANK1,global,class=BANK1,space=1,delta=1
    13                           	psect	clrtext,global,class=CODE,delta=2
    14                           	psect	cstackBANK1,global,class=BANK1,space=1,delta=1
    15                           	psect	cstackCOMMON,global,class=COMMON,space=1,delta=1
    16                           	psect	cstackBANK0,global,class=BANK0,space=1,delta=1
    17                           	psect	maintext,global,class=CODE,merge=1,split=1,delta=2
    18                           	psect	text1,local,class=CODE,merge=1,delta=2
    19                           	psect	text2,local,class=CODE,merge=1,delta=2
    20                           	psect	text3,local,class=CODE,merge=1,delta=2
    21                           	psect	text4,local,class=CODE,merge=1,delta=2
    22                           	psect	text5,local,class=CODE,merge=1,delta=2
    23                           	psect	text6,local,class=CODE,merge=1,delta=2
    24                           	psect	swtext1,local,class=CONST,delta=2
    25                           	psect	text7,local,class=CODE,merge=1,delta=2
    26                           	psect	text8,local,class=CODE,merge=1,delta=2
    27                           	psect	swtext2,local,class=CONST,delta=2
    28                           	psect	text9,local,class=CODE,merge=1,delta=2
    29                           	psect	text10,local,class=CODE,merge=1,delta=2
    30                           	psect	text11,local,class=CODE,merge=1,delta=2
    31                           	psect	text12,local,class=CODE,merge=1,delta=2
    32                           	psect	text13,local,class=CODE,merge=1,delta=2
    33                           	psect	text14,local,class=CODE,merge=1,delta=2
    34                           	psect	text15,local,class=CODE,merge=1,delta=2
    35                           	psect	text16,local,class=CODE,merge=1,delta=2
    36                           	psect	text17,local,class=CODE,merge=1,delta=2
    37                           	psect	text18,local,class=CODE,merge=1,delta=2
    38                           	psect	text19,local,class=CODE,merge=1,delta=2
    39                           	psect	text20,local,class=CODE,merge=1,delta=2
    40                           	psect	text21,local,class=CODE,merge=1,delta=2
    41                           	psect	text22,local,class=CODE,merge=1,delta=2
    42                           	psect	text23,local,class=CODE,merge=1,delta=2
    43                           	psect	text24,local,class=CODE,merge=1,delta=2
    44                           	psect	intentry,global,class=CODE,delta=2
    45                           	psect	text26,local,class=CODE,merge=1,delta=2
    46                           	psect	text27,local,class=CODE,merge=1,delta=2
    47                           	dabs	1,0xCA0,32
    48                           	dabs	1,0xC20,80
    49                           	dabs	1,0xBA0,80
    50                           	dabs	1,0xB30,64
    51                           	dabs	1,0xB20,16
    52                           	dabs	1,0xAA0,80
    53                           	dabs	1,0xA20,80
    54                           	dabs	1,0x9A0,80
    55                           	dabs	1,0x920,80
    56                           	dabs	1,0x8A0,80
    57                           	dabs	1,0x820,80
    58                           	dabs	1,0x7E0,16
    59                           	dabs	1,0x24F0,0,_spi1_send_buffer_data
    60                           	dabs	1,0x25F0,0,_spi2_buffer_data
    61                           	dabs	1,0x26F0,0,_spi1_buffer_data
    62                           	dabs	1,0x7E,2
    63  0000                     
    64                           ; Version 1.45
    65                           ; Generated 16/11/2017 GMT
    66                           ; 
    67                           ; Copyright © 2017, Microchip Technology Inc. and its subsidiaries ("Microchip")
    68                           ; All rights reserved.
    69                           ; 
    70                           ; This software is developed by Microchip Technology Inc. and its subsidiaries ("Microch
      +                          ip").
    71                           ; 
    72                           ; Redistribution and use in source and binary forms, with or without modification, are
    73                           ; permitted provided that the following conditions are met:
    74                           ; 
    75                           ;     1. Redistributions of source code must retain the above copyright notice, this lis
      +                          t of
    76                           ;        conditions and the following disclaimer.
    77                           ; 
    78                           ;     2. Redistributions in binary form must reproduce the above copyright notice, this 
      +                          list
    79                           ;        of conditions and the following disclaimer in the documentation and/or other
    80                           ;        materials provided with the distribution.
    81                           ; 
    82                           ;     3. Microchip's name may not be used to endorse or promote products derived from th
      +                          is
    83                           ;        software without specific prior written permission.
    84                           ; 
    85                           ; THIS SOFTWARE IS PROVIDED BY MICROCHIP "AS IS" AND ANY EXPRESS OR IMPLIED WARRANTIES,
    86                           ; INCLUDING, BUT NOT LIMITED TO, THE IMPLIED WARRANTIES OF MERCHANTABILITY AND FITNESS F
      +                          OR
    87                           ; PURPOSE ARE DISCLAIMED.  IN NO EVENT SHALL MICROCHIP BE LIABLE FOR ANY DIRECT, INDIREC
      +                          T,
    88                           ; INCIDENTAL, SPECIAL, EXEMPLARY, OR CONSEQUENTIAL DAMAGES (INCLUDING BUT NOT LIMITED TO
    89                           ; PROCUREMENT OF SUBSTITUTE GOODS OR SERVICES; LOSS OF USE, DATA OR PROFITS; OR BUSINESS
    90                           ; INTERRUPTION) HOWSOEVER CAUSED AND ON ANY THEORY OF LIABILITY, WHETHER IN CONTRACT, ST
      +                          RICT
    91                           ; LIABILITY, OR TORT (INCLUDING NEGLIGENCE OR OTHERWISE) ARISING IN ANY WAY OUT OF THE U
      +                          SE OF
    92                           ; THIS SOFTWARE, EVEN IF ADVISED OF THE POSSIBILITY OF SUCH DAMAGE.
    93                           ; 
    94                           ; 
    95                           ; Code-generator required, PIC16F18346 Definitions
    96                           ; 
    97                           ; SFR Addresses
    98  0000                     	;# 
    99  0001                     	;# 
   100  0002                     	;# 
   101  0003                     	;# 
   102  0004                     	;# 
   103  0005                     	;# 
   104  0006                     	;# 
   105  0007                     	;# 
   106  0008                     	;# 
   107  0009                     	;# 
   108  000A                     	;# 
   109  000B                     	;# 
   110  000C                     	;# 
   111  000D                     	;# 
   112  000E                     	;# 
   113  0010                     	;# 
   114  0011                     	;# 
   115  0012                     	;# 
   116  0013                     	;# 
   117  0014                     	;# 
   118  0015                     	;# 
   119  0015                     	;# 
   120  0016                     	;# 
   121  0016                     	;# 
   122  0017                     	;# 
   123  0018                     	;# 
   124  0019                     	;# 
   125  0019                     	;# 
   126  001A                     	;# 
   127  001B                     	;# 
   128  001C                     	;# 
   129  001D                     	;# 
   130  001E                     	;# 
   131  001F                     	;# 
   132  008C                     	;# 
   133  008D                     	;# 
   134  008E                     	;# 
   135  0090                     	;# 
   136  0091                     	;# 
   137  0092                     	;# 
   138  0093                     	;# 
   139  0094                     	;# 
   140  0097                     	;# 
   141  009B                     	;# 
   142  009B                     	;# 
   143  009C                     	;# 
   144  009D                     	;# 
   145  009E                     	;# 
   146  009F                     	;# 
   147  010C                     	;# 
   148  010D                     	;# 
   149  010E                     	;# 
   150  0111                     	;# 
   151  0112                     	;# 
   152  0113                     	;# 
   153  0114                     	;# 
   154  0115                     	;# 
   155  0116                     	;# 
   156  0117                     	;# 
   157  0118                     	;# 
   158  0119                     	;# 
   159  018C                     	;# 
   160  018D                     	;# 
   161  018E                     	;# 
   162  0197                     	;# 
   163  0199                     	;# 
   164  0199                     	;# 
   165  0199                     	;# 
   166  019A                     	;# 
   167  019A                     	;# 
   168  019A                     	;# 
   169  019B                     	;# 
   170  019B                     	;# 
   171  019B                     	;# 
   172  019B                     	;# 
   173  019B                     	;# 
   174  019C                     	;# 
   175  019C                     	;# 
   176  019C                     	;# 
   177  019D                     	;# 
   178  019D                     	;# 
   179  019D                     	;# 
   180  019E                     	;# 
   181  019E                     	;# 
   182  019E                     	;# 
   183  019F                     	;# 
   184  019F                     	;# 
   185  019F                     	;# 
   186  019F                     	;# 
   187  019F                     	;# 
   188  020C                     	;# 
   189  020D                     	;# 
   190  020E                     	;# 
   191  0211                     	;# 
   192  0211                     	;# 
   193  0212                     	;# 
   194  0212                     	;# 
   195  0213                     	;# 
   196  0213                     	;# 
   197  0214                     	;# 
   198  0214                     	;# 
   199  0215                     	;# 
   200  0215                     	;# 
   201  0215                     	;# 
   202  0215                     	;# 
   203  0216                     	;# 
   204  0216                     	;# 
   205  0217                     	;# 
   206  0217                     	;# 
   207  0219                     	;# 
   208  021A                     	;# 
   209  021B                     	;# 
   210  021C                     	;# 
   211  021D                     	;# 
   212  021D                     	;# 
   213  021E                     	;# 
   214  021F                     	;# 
   215  028C                     	;# 
   216  028D                     	;# 
   217  028E                     	;# 
   218  0291                     	;# 
   219  0291                     	;# 
   220  0292                     	;# 
   221  0293                     	;# 
   222  0294                     	;# 
   223  0295                     	;# 
   224  0295                     	;# 
   225  0296                     	;# 
   226  0297                     	;# 
   227  0298                     	;# 
   228  029F                     	;# 
   229  030C                     	;# 
   230  030D                     	;# 
   231  030E                     	;# 
   232  0311                     	;# 
   233  0311                     	;# 
   234  0312                     	;# 
   235  0313                     	;# 
   236  0314                     	;# 
   237  0315                     	;# 
   238  0315                     	;# 
   239  0316                     	;# 
   240  0317                     	;# 
   241  0318                     	;# 
   242  038C                     	;# 
   243  038D                     	;# 
   244  038E                     	;# 
   245  0391                     	;# 
   246  0392                     	;# 
   247  0393                     	;# 
   248  0394                     	;# 
   249  0395                     	;# 
   250  0396                     	;# 
   251  0397                     	;# 
   252  0398                     	;# 
   253  0399                     	;# 
   254  039A                     	;# 
   255  039C                     	;# 
   256  039D                     	;# 
   257  039E                     	;# 
   258  039F                     	;# 
   259  0411                     	;# 
   260  0411                     	;# 
   261  0412                     	;# 
   262  0413                     	;# 
   263  0414                     	;# 
   264  0415                     	;# 
   265  0416                     	;# 
   266  0417                     	;# 
   267  0418                     	;# 
   268  0418                     	;# 
   269  0419                     	;# 
   270  041A                     	;# 
   271  041B                     	;# 
   272  041C                     	;# 
   273  041D                     	;# 
   274  041E                     	;# 
   275  041F                     	;# 
   276  0498                     	;# 
   277  0498                     	;# 
   278  0499                     	;# 
   279  049A                     	;# 
   280  049B                     	;# 
   281  049B                     	;# 
   282  049C                     	;# 
   283  049D                     	;# 
   284  049E                     	;# 
   285  049F                     	;# 
   286  0617                     	;# 
   287  0618                     	;# 
   288  0619                     	;# 
   289  0619                     	;# 
   290  061A                     	;# 
   291  061B                     	;# 
   292  061C                     	;# 
   293  061C                     	;# 
   294  061F                     	;# 
   295  0691                     	;# 
   296  0692                     	;# 
   297  0693                     	;# 
   298  0694                     	;# 
   299  0695                     	;# 
   300  0696                     	;# 
   301  0697                     	;# 
   302  0698                     	;# 
   303  0699                     	;# 
   304  0711                     	;# 
   305  0712                     	;# 
   306  0713                     	;# 
   307  0714                     	;# 
   308  0715                     	;# 
   309  0716                     	;# 
   310  0717                     	;# 
   311  0718                     	;# 
   312  0719                     	;# 
   313  0891                     	;# 
   314  0891                     	;# 
   315  0891                     	;# 
   316  0891                     	;# 
   317  0891                     	;# 
   318  0891                     	;# 
   319  0892                     	;# 
   320  0892                     	;# 
   321  0892                     	;# 
   322  0893                     	;# 
   323  0893                     	;# 
   324  0893                     	;# 
   325  0893                     	;# 
   326  0893                     	;# 
   327  0893                     	;# 
   328  0894                     	;# 
   329  0894                     	;# 
   330  0894                     	;# 
   331  0895                     	;# 
   332  0895                     	;# 
   333  0895                     	;# 
   334  0896                     	;# 
   335  0896                     	;# 
   336  0896                     	;# 
   337  089B                     	;# 
   338  0911                     	;# 
   339  0912                     	;# 
   340  0913                     	;# 
   341  0914                     	;# 
   342  0915                     	;# 
   343  0916                     	;# 
   344  0918                     	;# 
   345  0919                     	;# 
   346  091A                     	;# 
   347  091B                     	;# 
   348  091C                     	;# 
   349  091D                     	;# 
   350  091E                     	;# 
   351  091F                     	;# 
   352  0E0F                     	;# 
   353  0E10                     	;# 
   354  0E11                     	;# 
   355  0E12                     	;# 
   356  0E13                     	;# 
   357  0E14                     	;# 
   358  0E15                     	;# 
   359  0E16                     	;# 
   360  0E17                     	;# 
   361  0E18                     	;# 
   362  0E19                     	;# 
   363  0E1A                     	;# 
   364  0E1B                     	;# 
   365  0E1C                     	;# 
   366  0E1D                     	;# 
   367  0E1E                     	;# 
   368  0E1F                     	;# 
   369  0E20                     	;# 
   370  0E21                     	;# 
   371  0E22                     	;# 
   372  0E24                     	;# 
   373  0E25                     	;# 
   374  0E28                     	;# 
   375  0E29                     	;# 
   376  0E2A                     	;# 
   377  0E2B                     	;# 
   378  0E2C                     	;# 
   379  0E2D                     	;# 
   380  0E2E                     	;# 
   381  0E2F                     	;# 
   382  0E90                     	;# 
   383  0E91                     	;# 
   384  0E92                     	;# 
   385  0E94                     	;# 
   386  0E95                     	;# 
   387  0E9C                     	;# 
   388  0E9D                     	;# 
   389  0E9E                     	;# 
   390  0E9F                     	;# 
   391  0EA0                     	;# 
   392  0EA1                     	;# 
   393  0EA2                     	;# 
   394  0EA3                     	;# 
   395  0EA4                     	;# 
   396  0EA5                     	;# 
   397  0EA6                     	;# 
   398  0EA7                     	;# 
   399  0F0F                     	;# 
   400  0F10                     	;# 
   401  0F11                     	;# 
   402  0F12                     	;# 
   403  0F13                     	;# 
   404  0F14                     	;# 
   405  0F15                     	;# 
   406  0F16                     	;# 
   407  0F17                     	;# 
   408  0F18                     	;# 
   409  0F19                     	;# 
   410  0F1A                     	;# 
   411  0F1B                     	;# 
   412  0F1C                     	;# 
   413  0F1D                     	;# 
   414  0F1E                     	;# 
   415  0F1F                     	;# 
   416  0F20                     	;# 
   417  0F21                     	;# 
   418  0F22                     	;# 
   419  0F23                     	;# 
   420  0F24                     	;# 
   421  0F25                     	;# 
   422  0F26                     	;# 
   423  0F27                     	;# 
   424  0F28                     	;# 
   425  0F29                     	;# 
   426  0F2A                     	;# 
   427  0F2B                     	;# 
   428  0F2C                     	;# 
   429  0F2D                     	;# 
   430  0F2E                     	;# 
   431  0F2F                     	;# 
   432  0F30                     	;# 
   433  0F31                     	;# 
   434  0F32                     	;# 
   435  0F33                     	;# 
   436  0F34                     	;# 
   437  0F35                     	;# 
   438  0F36                     	;# 
   439  0F37                     	;# 
   440  0FE4                     	;# 
   441  0FE5                     	;# 
   442  0FE6                     	;# 
   443  0FE7                     	;# 
   444  0FE8                     	;# 
   445  0FE9                     	;# 
   446  0FEA                     	;# 
   447  0FEB                     	;# 
   448  0FED                     	;# 
   449  0FEE                     	;# 
   450  0FEF                     	;# 
   451  0000                     	;# 
   452  0001                     	;# 
   453  0002                     	;# 
   454  0003                     	;# 
   455  0004                     	;# 
   456  0005                     	;# 
   457  0006                     	;# 
   458  0007                     	;# 
   459  0008                     	;# 
   460  0009                     	;# 
   461  000A                     	;# 
   462  000B                     	;# 
   463  000C                     	;# 
   464  000D                     	;# 
   465  000E                     	;# 
   466  0010                     	;# 
   467  0011                     	;# 
   468  0012                     	;# 
   469  0013                     	;# 
   470  0014                     	;# 
   471  0015                     	;# 
   472  0015                     	;# 
   473  0016                     	;# 
   474  0016                     	;# 
   475  0017                     	;# 
   476  0018                     	;# 
   477  0019                     	;# 
   478  0019                     	;# 
   479  001A                     	;# 
   480  001B                     	;# 
   481  001C                     	;# 
   482  001D                     	;# 
   483  001E                     	;# 
   484  001F                     	;# 
   485  008C                     	;# 
   486  008D                     	;# 
   487  008E                     	;# 
   488  0090                     	;# 
   489  0091                     	;# 
   490  0092                     	;# 
   491  0093                     	;# 
   492  0094                     	;# 
   493  0097                     	;# 
   494  009B                     	;# 
   495  009B                     	;# 
   496  009C                     	;# 
   497  009D                     	;# 
   498  009E                     	;# 
   499  009F                     	;# 
   500  010C                     	;# 
   501  010D                     	;# 
   502  010E                     	;# 
   503  0111                     	;# 
   504  0112                     	;# 
   505  0113                     	;# 
   506  0114                     	;# 
   507  0115                     	;# 
   508  0116                     	;# 
   509  0117                     	;# 
   510  0118                     	;# 
   511  0119                     	;# 
   512  018C                     	;# 
   513  018D                     	;# 
   514  018E                     	;# 
   515  0197                     	;# 
   516  0199                     	;# 
   517  0199                     	;# 
   518  0199                     	;# 
   519  019A                     	;# 
   520  019A                     	;# 
   521  019A                     	;# 
   522  019B                     	;# 
   523  019B                     	;# 
   524  019B                     	;# 
   525  019B                     	;# 
   526  019B                     	;# 
   527  019C                     	;# 
   528  019C                     	;# 
   529  019C                     	;# 
   530  019D                     	;# 
   531  019D                     	;# 
   532  019D                     	;# 
   533  019E                     	;# 
   534  019E                     	;# 
   535  019E                     	;# 
   536  019F                     	;# 
   537  019F                     	;# 
   538  019F                     	;# 
   539  019F                     	;# 
   540  019F                     	;# 
   541  020C                     	;# 
   542  020D                     	;# 
   543  020E                     	;# 
   544  0211                     	;# 
   545  0211                     	;# 
   546  0212                     	;# 
   547  0212                     	;# 
   548  0213                     	;# 
   549  0213                     	;# 
   550  0214                     	;# 
   551  0214                     	;# 
   552  0215                     	;# 
   553  0215                     	;# 
   554  0215                     	;# 
   555  0215                     	;# 
   556  0216                     	;# 
   557  0216                     	;# 
   558  0217                     	;# 
   559  0217                     	;# 
   560  0219                     	;# 
   561  021A                     	;# 
   562  021B                     	;# 
   563  021C                     	;# 
   564  021D                     	;# 
   565  021D                     	;# 
   566  021E                     	;# 
   567  021F                     	;# 
   568  028C                     	;# 
   569  028D                     	;# 
   570  028E                     	;# 
   571  0291                     	;# 
   572  0291                     	;# 
   573  0292                     	;# 
   574  0293                     	;# 
   575  0294                     	;# 
   576  0295                     	;# 
   577  0295                     	;# 
   578  0296                     	;# 
   579  0297                     	;# 
   580  0298                     	;# 
   581  029F                     	;# 
   582  030C                     	;# 
   583  030D                     	;# 
   584  030E                     	;# 
   585  0311                     	;# 
   586  0311                     	;# 
   587  0312                     	;# 
   588  0313                     	;# 
   589  0314                     	;# 
   590  0315                     	;# 
   591  0315                     	;# 
   592  0316                     	;# 
   593  0317                     	;# 
   594  0318                     	;# 
   595  038C                     	;# 
   596  038D                     	;# 
   597  038E                     	;# 
   598  0391                     	;# 
   599  0392                     	;# 
   600  0393                     	;# 
   601  0394                     	;# 
   602  0395                     	;# 
   603  0396                     	;# 
   604  0397                     	;# 
   605  0398                     	;# 
   606  0399                     	;# 
   607  039A                     	;# 
   608  039C                     	;# 
   609  039D                     	;# 
   610  039E                     	;# 
   611  039F                     	;# 
   612  0411                     	;# 
   613  0411                     	;# 
   614  0412                     	;# 
   615  0413                     	;# 
   616  0414                     	;# 
   617  0415                     	;# 
   618  0416                     	;# 
   619  0417                     	;# 
   620  0418                     	;# 
   621  0418                     	;# 
   622  0419                     	;# 
   623  041A                     	;# 
   624  041B                     	;# 
   625  041C                     	;# 
   626  041D                     	;# 
   627  041E                     	;# 
   628  041F                     	;# 
   629  0498                     	;# 
   630  0498                     	;# 
   631  0499                     	;# 
   632  049A                     	;# 
   633  049B                     	;# 
   634  049B                     	;# 
   635  049C                     	;# 
   636  049D                     	;# 
   637  049E                     	;# 
   638  049F                     	;# 
   639  0617                     	;# 
   640  0618                     	;# 
   641  0619                     	;# 
   642  0619                     	;# 
   643  061A                     	;# 
   644  061B                     	;# 
   645  061C                     	;# 
   646  061C                     	;# 
   647  061F                     	;# 
   648  0691                     	;# 
   649  0692                     	;# 
   650  0693                     	;# 
   651  0694                     	;# 
   652  0695                     	;# 
   653  0696                     	;# 
   654  0697                     	;# 
   655  0698                     	;# 
   656  0699                     	;# 
   657  0711                     	;# 
   658  0712                     	;# 
   659  0713                     	;# 
   660  0714                     	;# 
   661  0715                     	;# 
   662  0716                     	;# 
   663  0717                     	;# 
   664  0718                     	;# 
   665  0719                     	;# 
   666  0891                     	;# 
   667  0891                     	;# 
   668  0891                     	;# 
   669  0891                     	;# 
   670  0891                     	;# 
   671  0891                     	;# 
   672  0892                     	;# 
   673  0892                     	;# 
   674  0892                     	;# 
   675  0893                     	;# 
   676  0893                     	;# 
   677  0893                     	;# 
   678  0893                     	;# 
   679  0893                     	;# 
   680  0893                     	;# 
   681  0894                     	;# 
   682  0894                     	;# 
   683  0894                     	;# 
   684  0895                     	;# 
   685  0895                     	;# 
   686  0895                     	;# 
   687  0896                     	;# 
   688  0896                     	;# 
   689  0896                     	;# 
   690  089B                     	;# 
   691  0911                     	;# 
   692  0912                     	;# 
   693  0913                     	;# 
   694  0914                     	;# 
   695  0915                     	;# 
   696  0916                     	;# 
   697  0918                     	;# 
   698  0919                     	;# 
   699  091A                     	;# 
   700  091B                     	;# 
   701  091C                     	;# 
   702  091D                     	;# 
   703  091E                     	;# 
   704  091F                     	;# 
   705  0E0F                     	;# 
   706  0E10                     	;# 
   707  0E11                     	;# 
   708  0E12                     	;# 
   709  0E13                     	;# 
   710  0E14                     	;# 
   711  0E15                     	;# 
   712  0E16                     	;# 
   713  0E17                     	;# 
   714  0E18                     	;# 
   715  0E19                     	;# 
   716  0E1A                     	;# 
   717  0E1B                     	;# 
   718  0E1C                     	;# 
   719  0E1D                     	;# 
   720  0E1E                     	;# 
   721  0E1F                     	;# 
   722  0E20                     	;# 
   723  0E21                     	;# 
   724  0E22                     	;# 
   725  0E24                     	;# 
   726  0E25                     	;# 
   727  0E28                     	;# 
   728  0E29                     	;# 
   729  0E2A                     	;# 
   730  0E2B                     	;# 
   731  0E2C                     	;# 
   732  0E2D                     	;# 
   733  0E2E                     	;# 
   734  0E2F                     	;# 
   735  0E90                     	;# 
   736  0E91                     	;# 
   737  0E92                     	;# 
   738  0E94                     	;# 
   739  0E95                     	;# 
   740  0E9C                     	;# 
   741  0E9D                     	;# 
   742  0E9E                     	;# 
   743  0E9F                     	;# 
   744  0EA0                     	;# 
   745  0EA1                     	;# 
   746  0EA2                     	;# 
   747  0EA3                     	;# 
   748  0EA4                     	;# 
   749  0EA5                     	;# 
   750  0EA6                     	;# 
   751  0EA7                     	;# 
   752  0F0F                     	;# 
   753  0F10                     	;# 
   754  0F11                     	;# 
   755  0F12                     	;# 
   756  0F13                     	;# 
   757  0F14                     	;# 
   758  0F15                     	;# 
   759  0F16                     	;# 
   760  0F17                     	;# 
   761  0F18                     	;# 
   762  0F19                     	;# 
   763  0F1A                     	;# 
   764  0F1B                     	;# 
   765  0F1C                     	;# 
   766  0F1D                     	;# 
   767  0F1E                     	;# 
   768  0F1F                     	;# 
   769  0F20                     	;# 
   770  0F21                     	;# 
   771  0F22                     	;# 
   772  0F23                     	;# 
   773  0F24                     	;# 
   774  0F25                     	;# 
   775  0F26                     	;# 
   776  0F27                     	;# 
   777  0F28                     	;# 
   778  0F29                     	;# 
   779  0F2A                     	;# 
   780  0F2B                     	;# 
   781  0F2C                     	;# 
   782  0F2D                     	;# 
   783  0F2E                     	;# 
   784  0F2F                     	;# 
   785  0F30                     	;# 
   786  0F31                     	;# 
   787  0F32                     	;# 
   788  0F33                     	;# 
   789  0F34                     	;# 
   790  0F35                     	;# 
   791  0F36                     	;# 
   792  0F37                     	;# 
   793  0FE4                     	;# 
   794  0FE5                     	;# 
   795  0FE6                     	;# 
   796  0FE7                     	;# 
   797  0FE8                     	;# 
   798  0FE9                     	;# 
   799  0FEA                     	;# 
   800  0FEB                     	;# 
   801  0FED                     	;# 
   802  0FEE                     	;# 
   803  0FEF                     	;# 
   804  0000                     	;# 
   805  0001                     	;# 
   806  0002                     	;# 
   807  0003                     	;# 
   808  0004                     	;# 
   809  0005                     	;# 
   810  0006                     	;# 
   811  0007                     	;# 
   812  0008                     	;# 
   813  0009                     	;# 
   814  000A                     	;# 
   815  000B                     	;# 
   816  000C                     	;# 
   817  000D                     	;# 
   818  000E                     	;# 
   819  0010                     	;# 
   820  0011                     	;# 
   821  0012                     	;# 
   822  0013                     	;# 
   823  0014                     	;# 
   824  0015                     	;# 
   825  0015                     	;# 
   826  0016                     	;# 
   827  0016                     	;# 
   828  0017                     	;# 
   829  0018                     	;# 
   830  0019                     	;# 
   831  0019                     	;# 
   832  001A                     	;# 
   833  001B                     	;# 
   834  001C                     	;# 
   835  001D                     	;# 
   836  001E                     	;# 
   837  001F                     	;# 
   838  008C                     	;# 
   839  008D                     	;# 
   840  008E                     	;# 
   841  0090                     	;# 
   842  0091                     	;# 
   843  0092                     	;# 
   844  0093                     	;# 
   845  0094                     	;# 
   846  0097                     	;# 
   847  009B                     	;# 
   848  009B                     	;# 
   849  009C                     	;# 
   850  009D                     	;# 
   851  009E                     	;# 
   852  009F                     	;# 
   853  010C                     	;# 
   854  010D                     	;# 
   855  010E                     	;# 
   856  0111                     	;# 
   857  0112                     	;# 
   858  0113                     	;# 
   859  0114                     	;# 
   860  0115                     	;# 
   861  0116                     	;# 
   862  0117                     	;# 
   863  0118                     	;# 
   864  0119                     	;# 
   865  018C                     	;# 
   866  018D                     	;# 
   867  018E                     	;# 
   868  0197                     	;# 
   869  0199                     	;# 
   870  0199                     	;# 
   871  0199                     	;# 
   872  019A                     	;# 
   873  019A                     	;# 
   874  019A                     	;# 
   875  019B                     	;# 
   876  019B                     	;# 
   877  019B                     	;# 
   878  019B                     	;# 
   879  019B                     	;# 
   880  019C                     	;# 
   881  019C                     	;# 
   882  019C                     	;# 
   883  019D                     	;# 
   884  019D                     	;# 
   885  019D                     	;# 
   886  019E                     	;# 
   887  019E                     	;# 
   888  019E                     	;# 
   889  019F                     	;# 
   890  019F                     	;# 
   891  019F                     	;# 
   892  019F                     	;# 
   893  019F                     	;# 
   894  020C                     	;# 
   895  020D                     	;# 
   896  020E                     	;# 
   897  0211                     	;# 
   898  0211                     	;# 
   899  0212                     	;# 
   900  0212                     	;# 
   901  0213                     	;# 
   902  0213                     	;# 
   903  0214                     	;# 
   904  0214                     	;# 
   905  0215                     	;# 
   906  0215                     	;# 
   907  0215                     	;# 
   908  0215                     	;# 
   909  0216                     	;# 
   910  0216                     	;# 
   911  0217                     	;# 
   912  0217                     	;# 
   913  0219                     	;# 
   914  021A                     	;# 
   915  021B                     	;# 
   916  021C                     	;# 
   917  021D                     	;# 
   918  021D                     	;# 
   919  021E                     	;# 
   920  021F                     	;# 
   921  028C                     	;# 
   922  028D                     	;# 
   923  028E                     	;# 
   924  0291                     	;# 
   925  0291                     	;# 
   926  0292                     	;# 
   927  0293                     	;# 
   928  0294                     	;# 
   929  0295                     	;# 
   930  0295                     	;# 
   931  0296                     	;# 
   932  0297                     	;# 
   933  0298                     	;# 
   934  029F                     	;# 
   935  030C                     	;# 
   936  030D                     	;# 
   937  030E                     	;# 
   938  0311                     	;# 
   939  0311                     	;# 
   940  0312                     	;# 
   941  0313                     	;# 
   942  0314                     	;# 
   943  0315                     	;# 
   944  0315                     	;# 
   945  0316                     	;# 
   946  0317                     	;# 
   947  0318                     	;# 
   948  038C                     	;# 
   949  038D                     	;# 
   950  038E                     	;# 
   951  0391                     	;# 
   952  0392                     	;# 
   953  0393                     	;# 
   954  0394                     	;# 
   955  0395                     	;# 
   956  0396                     	;# 
   957  0397                     	;# 
   958  0398                     	;# 
   959  0399                     	;# 
   960  039A                     	;# 
   961  039C                     	;# 
   962  039D                     	;# 
   963  039E                     	;# 
   964  039F                     	;# 
   965  0411                     	;# 
   966  0411                     	;# 
   967  0412                     	;# 
   968  0413                     	;# 
   969  0414                     	;# 
   970  0415                     	;# 
   971  0416                     	;# 
   972  0417                     	;# 
   973  0418                     	;# 
   974  0418                     	;# 
   975  0419                     	;# 
   976  041A                     	;# 
   977  041B                     	;# 
   978  041C                     	;# 
   979  041D                     	;# 
   980  041E                     	;# 
   981  041F                     	;# 
   982  0498                     	;# 
   983  0498                     	;# 
   984  0499                     	;# 
   985  049A                     	;# 
   986  049B                     	;# 
   987  049B                     	;# 
   988  049C                     	;# 
   989  049D                     	;# 
   990  049E                     	;# 
   991  049F                     	;# 
   992  0617                     	;# 
   993  0618                     	;# 
   994  0619                     	;# 
   995  0619                     	;# 
   996  061A                     	;# 
   997  061B                     	;# 
   998  061C                     	;# 
   999  061C                     	;# 
  1000  061F                     	;# 
  1001  0691                     	;# 
  1002  0692                     	;# 
  1003  0693                     	;# 
  1004  0694                     	;# 
  1005  0695                     	;# 
  1006  0696                     	;# 
  1007  0697                     	;# 
  1008  0698                     	;# 
  1009  0699                     	;# 
  1010  0711                     	;# 
  1011  0712                     	;# 
  1012  0713                     	;# 
  1013  0714                     	;# 
  1014  0715                     	;# 
  1015  0716                     	;# 
  1016  0717                     	;# 
  1017  0718                     	;# 
  1018  0719                     	;# 
  1019  0891                     	;# 
  1020  0891                     	;# 
  1021  0891                     	;# 
  1022  0891                     	;# 
  1023  0891                     	;# 
  1024  0891                     	;# 
  1025  0892                     	;# 
  1026  0892                     	;# 
  1027  0892                     	;# 
  1028  0893                     	;# 
  1029  0893                     	;# 
  1030  0893                     	;# 
  1031  0893                     	;# 
  1032  0893                     	;# 
  1033  0893                     	;# 
  1034  0894                     	;# 
  1035  0894                     	;# 
  1036  0894                     	;# 
  1037  0895                     	;# 
  1038  0895                     	;# 
  1039  0895                     	;# 
  1040  0896                     	;# 
  1041  0896                     	;# 
  1042  0896                     	;# 
  1043  089B                     	;# 
  1044  0911                     	;# 
  1045  0912                     	;# 
  1046  0913                     	;# 
  1047  0914                     	;# 
  1048  0915                     	;# 
  1049  0916                     	;# 
  1050  0918                     	;# 
  1051  0919                     	;# 
  1052  091A                     	;# 
  1053  091B                     	;# 
  1054  091C                     	;# 
  1055  091D                     	;# 
  1056  091E                     	;# 
  1057  091F                     	;# 
  1058  0E0F                     	;# 
  1059  0E10                     	;# 
  1060  0E11                     	;# 
  1061  0E12                     	;# 
  1062  0E13                     	;# 
  1063  0E14                     	;# 
  1064  0E15                     	;# 
  1065  0E16                     	;# 
  1066  0E17                     	;# 
  1067  0E18                     	;# 
  1068  0E19                     	;# 
  1069  0E1A                     	;# 
  1070  0E1B                     	;# 
  1071  0E1C                     	;# 
  1072  0E1D                     	;# 
  1073  0E1E                     	;# 
  1074  0E1F                     	;# 
  1075  0E20                     	;# 
  1076  0E21                     	;# 
  1077  0E22                     	;# 
  1078  0E24                     	;# 
  1079  0E25                     	;# 
  1080  0E28                     	;# 
  1081  0E29                     	;# 
  1082  0E2A                     	;# 
  1083  0E2B                     	;# 
  1084  0E2C                     	;# 
  1085  0E2D                     	;# 
  1086  0E2E                     	;# 
  1087  0E2F                     	;# 
  1088  0E90                     	;# 
  1089  0E91                     	;# 
  1090  0E92                     	;# 
  1091  0E94                     	;# 
  1092  0E95                     	;# 
  1093  0E9C                     	;# 
  1094  0E9D                     	;# 
  1095  0E9E                     	;# 
  1096  0E9F                     	;# 
  1097  0EA0                     	;# 
  1098  0EA1                     	;# 
  1099  0EA2                     	;# 
  1100  0EA3                     	;# 
  1101  0EA4                     	;# 
  1102  0EA5                     	;# 
  1103  0EA6                     	;# 
  1104  0EA7                     	;# 
  1105  0F0F                     	;# 
  1106  0F10                     	;# 
  1107  0F11                     	;# 
  1108  0F12                     	;# 
  1109  0F13                     	;# 
  1110  0F14                     	;# 
  1111  0F15                     	;# 
  1112  0F16                     	;# 
  1113  0F17                     	;# 
  1114  0F18                     	;# 
  1115  0F19                     	;# 
  1116  0F1A                     	;# 
  1117  0F1B                     	;# 
  1118  0F1C                     	;# 
  1119  0F1D                     	;# 
  1120  0F1E                     	;# 
  1121  0F1F                     	;# 
  1122  0F20                     	;# 
  1123  0F21                     	;# 
  1124  0F22                     	;# 
  1125  0F23                     	;# 
  1126  0F24                     	;# 
  1127  0F25                     	;# 
  1128  0F26                     	;# 
  1129  0F27                     	;# 
  1130  0F28                     	;# 
  1131  0F29                     	;# 
  1132  0F2A                     	;# 
  1133  0F2B                     	;# 
  1134  0F2C                     	;# 
  1135  0F2D                     	;# 
  1136  0F2E                     	;# 
  1137  0F2F                     	;# 
  1138  0F30                     	;# 
  1139  0F31                     	;# 
  1140  0F32                     	;# 
  1141  0F33                     	;# 
  1142  0F34                     	;# 
  1143  0F35                     	;# 
  1144  0F36                     	;# 
  1145  0F37                     	;# 
  1146  0FE4                     	;# 
  1147  0FE5                     	;# 
  1148  0FE6                     	;# 
  1149  0FE7                     	;# 
  1150  0FE8                     	;# 
  1151  0FE9                     	;# 
  1152  0FEA                     	;# 
  1153  0FEB                     	;# 
  1154  0FED                     	;# 
  1155  0FEE                     	;# 
  1156  0FEF                     	;# 
  1157  0000                     	;# 
  1158  0001                     	;# 
  1159  0002                     	;# 
  1160  0003                     	;# 
  1161  0004                     	;# 
  1162  0005                     	;# 
  1163  0006                     	;# 
  1164  0007                     	;# 
  1165  0008                     	;# 
  1166  0009                     	;# 
  1167  000A                     	;# 
  1168  000B                     	;# 
  1169  000C                     	;# 
  1170  000D                     	;# 
  1171  000E                     	;# 
  1172  0010                     	;# 
  1173  0011                     	;# 
  1174  0012                     	;# 
  1175  0013                     	;# 
  1176  0014                     	;# 
  1177  0015                     	;# 
  1178  0015                     	;# 
  1179  0016                     	;# 
  1180  0016                     	;# 
  1181  0017                     	;# 
  1182  0018                     	;# 
  1183  0019                     	;# 
  1184  0019                     	;# 
  1185  001A                     	;# 
  1186  001B                     	;# 
  1187  001C                     	;# 
  1188  001D                     	;# 
  1189  001E                     	;# 
  1190  001F                     	;# 
  1191  008C                     	;# 
  1192  008D                     	;# 
  1193  008E                     	;# 
  1194  0090                     	;# 
  1195  0091                     	;# 
  1196  0092                     	;# 
  1197  0093                     	;# 
  1198  0094                     	;# 
  1199  0097                     	;# 
  1200  009B                     	;# 
  1201  009B                     	;# 
  1202  009C                     	;# 
  1203  009D                     	;# 
  1204  009E                     	;# 
  1205  009F                     	;# 
  1206  010C                     	;# 
  1207  010D                     	;# 
  1208  010E                     	;# 
  1209  0111                     	;# 
  1210  0112                     	;# 
  1211  0113                     	;# 
  1212  0114                     	;# 
  1213  0115                     	;# 
  1214  0116                     	;# 
  1215  0117                     	;# 
  1216  0118                     	;# 
  1217  0119                     	;# 
  1218  018C                     	;# 
  1219  018D                     	;# 
  1220  018E                     	;# 
  1221  0197                     	;# 
  1222  0199                     	;# 
  1223  0199                     	;# 
  1224  0199                     	;# 
  1225  019A                     	;# 
  1226  019A                     	;# 
  1227  019A                     	;# 
  1228  019B                     	;# 
  1229  019B                     	;# 
  1230  019B                     	;# 
  1231  019B                     	;# 
  1232  019B                     	;# 
  1233  019C                     	;# 
  1234  019C                     	;# 
  1235  019C                     	;# 
  1236  019D                     	;# 
  1237  019D                     	;# 
  1238  019D                     	;# 
  1239  019E                     	;# 
  1240  019E                     	;# 
  1241  019E                     	;# 
  1242  019F                     	;# 
  1243  019F                     	;# 
  1244  019F                     	;# 
  1245  019F                     	;# 
  1246  019F                     	;# 
  1247  020C                     	;# 
  1248  020D                     	;# 
  1249  020E                     	;# 
  1250  0211                     	;# 
  1251  0211                     	;# 
  1252  0212                     	;# 
  1253  0212                     	;# 
  1254  0213                     	;# 
  1255  0213                     	;# 
  1256  0214                     	;# 
  1257  0214                     	;# 
  1258  0215                     	;# 
  1259  0215                     	;# 
  1260  0215                     	;# 
  1261  0215                     	;# 
  1262  0216                     	;# 
  1263  0216                     	;# 
  1264  0217                     	;# 
  1265  0217                     	;# 
  1266  0219                     	;# 
  1267  021A                     	;# 
  1268  021B                     	;# 
  1269  021C                     	;# 
  1270  021D                     	;# 
  1271  021D                     	;# 
  1272  021E                     	;# 
  1273  021F                     	;# 
  1274  028C                     	;# 
  1275  028D                     	;# 
  1276  028E                     	;# 
  1277  0291                     	;# 
  1278  0291                     	;# 
  1279  0292                     	;# 
  1280  0293                     	;# 
  1281  0294                     	;# 
  1282  0295                     	;# 
  1283  0295                     	;# 
  1284  0296                     	;# 
  1285  0297                     	;# 
  1286  0298                     	;# 
  1287  029F                     	;# 
  1288  030C                     	;# 
  1289  030D                     	;# 
  1290  030E                     	;# 
  1291  0311                     	;# 
  1292  0311                     	;# 
  1293  0312                     	;# 
  1294  0313                     	;# 
  1295  0314                     	;# 
  1296  0315                     	;# 
  1297  0315                     	;# 
  1298  0316                     	;# 
  1299  0317                     	;# 
  1300  0318                     	;# 
  1301  038C                     	;# 
  1302  038D                     	;# 
  1303  038E                     	;# 
  1304  0391                     	;# 
  1305  0392                     	;# 
  1306  0393                     	;# 
  1307  0394                     	;# 
  1308  0395                     	;# 
  1309  0396                     	;# 
  1310  0397                     	;# 
  1311  0398                     	;# 
  1312  0399                     	;# 
  1313  039A                     	;# 
  1314  039C                     	;# 
  1315  039D                     	;# 
  1316  039E                     	;# 
  1317  039F                     	;# 
  1318  0411                     	;# 
  1319  0411                     	;# 
  1320  0412                     	;# 
  1321  0413                     	;# 
  1322  0414                     	;# 
  1323  0415                     	;# 
  1324  0416                     	;# 
  1325  0417                     	;# 
  1326  0418                     	;# 
  1327  0418                     	;# 
  1328  0419                     	;# 
  1329  041A                     	;# 
  1330  041B                     	;# 
  1331  041C                     	;# 
  1332  041D                     	;# 
  1333  041E                     	;# 
  1334  041F                     	;# 
  1335  0498                     	;# 
  1336  0498                     	;# 
  1337  0499                     	;# 
  1338  049A                     	;# 
  1339  049B                     	;# 
  1340  049B                     	;# 
  1341  049C                     	;# 
  1342  049D                     	;# 
  1343  049E                     	;# 
  1344  049F                     	;# 
  1345  0617                     	;# 
  1346  0618                     	;# 
  1347  0619                     	;# 
  1348  0619                     	;# 
  1349  061A                     	;# 
  1350  061B                     	;# 
  1351  061C                     	;# 
  1352  061C                     	;# 
  1353  061F                     	;# 
  1354  0691                     	;# 
  1355  0692                     	;# 
  1356  0693                     	;# 
  1357  0694                     	;# 
  1358  0695                     	;# 
  1359  0696                     	;# 
  1360  0697                     	;# 
  1361  0698                     	;# 
  1362  0699                     	;# 
  1363  0711                     	;# 
  1364  0712                     	;# 
  1365  0713                     	;# 
  1366  0714                     	;# 
  1367  0715                     	;# 
  1368  0716                     	;# 
  1369  0717                     	;# 
  1370  0718                     	;# 
  1371  0719                     	;# 
  1372  0891                     	;# 
  1373  0891                     	;# 
  1374  0891                     	;# 
  1375  0891                     	;# 
  1376  0891                     	;# 
  1377  0891                     	;# 
  1378  0892                     	;# 
  1379  0892                     	;# 
  1380  0892                     	;# 
  1381  0893                     	;# 
  1382  0893                     	;# 
  1383  0893                     	;# 
  1384  0893                     	;# 
  1385  0893                     	;# 
  1386  0893                     	;# 
  1387  0894                     	;# 
  1388  0894                     	;# 
  1389  0894                     	;# 
  1390  0895                     	;# 
  1391  0895                     	;# 
  1392  0895                     	;# 
  1393  0896                     	;# 
  1394  0896                     	;# 
  1395  0896                     	;# 
  1396  089B                     	;# 
  1397  0911                     	;# 
  1398  0912                     	;# 
  1399  0913                     	;# 
  1400  0914                     	;# 
  1401  0915                     	;# 
  1402  0916                     	;# 
  1403  0918                     	;# 
  1404  0919                     	;# 
  1405  091A                     	;# 
  1406  091B                     	;# 
  1407  091C                     	;# 
  1408  091D                     	;# 
  1409  091E                     	;# 
  1410  091F                     	;# 
  1411  0E0F                     	;# 
  1412  0E10                     	;# 
  1413  0E11                     	;# 
  1414  0E12                     	;# 
  1415  0E13                     	;# 
  1416  0E14                     	;# 
  1417  0E15                     	;# 
  1418  0E16                     	;# 
  1419  0E17                     	;# 
  1420  0E18                     	;# 
  1421  0E19                     	;# 
  1422  0E1A                     	;# 
  1423  0E1B                     	;# 
  1424  0E1C                     	;# 
  1425  0E1D                     	;# 
  1426  0E1E                     	;# 
  1427  0E1F                     	;# 
  1428  0E20                     	;# 
  1429  0E21                     	;# 
  1430  0E22                     	;# 
  1431  0E24                     	;# 
  1432  0E25                     	;# 
  1433  0E28                     	;# 
  1434  0E29                     	;# 
  1435  0E2A                     	;# 
  1436  0E2B                     	;# 
  1437  0E2C                     	;# 
  1438  0E2D                     	;# 
  1439  0E2E                     	;# 
  1440  0E2F                     	;# 
  1441  0E90                     	;# 
  1442  0E91                     	;# 
  1443  0E92                     	;# 
  1444  0E94                     	;# 
  1445  0E95                     	;# 
  1446  0E9C                     	;# 
  1447  0E9D                     	;# 
  1448  0E9E                     	;# 
  1449  0E9F                     	;# 
  1450  0EA0                     	;# 
  1451  0EA1                     	;# 
  1452  0EA2                     	;# 
  1453  0EA3                     	;# 
  1454  0EA4                     	;# 
  1455  0EA5                     	;# 
  1456  0EA6                     	;# 
  1457  0EA7                     	;# 
  1458  0F0F                     	;# 
  1459  0F10                     	;# 
  1460  0F11                     	;# 
  1461  0F12                     	;# 
  1462  0F13                     	;# 
  1463  0F14                     	;# 
  1464  0F15                     	;# 
  1465  0F16                     	;# 
  1466  0F17                     	;# 
  1467  0F18                     	;# 
  1468  0F19                     	;# 
  1469  0F1A                     	;# 
  1470  0F1B                     	;# 
  1471  0F1C                     	;# 
  1472  0F1D                     	;# 
  1473  0F1E                     	;# 
  1474  0F1F                     	;# 
  1475  0F20                     	;# 
  1476  0F21                     	;# 
  1477  0F22                     	;# 
  1478  0F23                     	;# 
  1479  0F24                     	;# 
  1480  0F25                     	;# 
  1481  0F26                     	;# 
  1482  0F27                     	;# 
  1483  0F28                     	;# 
  1484  0F29                     	;# 
  1485  0F2A                     	;# 
  1486  0F2B                     	;# 
  1487  0F2C                     	;# 
  1488  0F2D                     	;# 
  1489  0F2E                     	;# 
  1490  0F2F                     	;# 
  1491  0F30                     	;# 
  1492  0F31                     	;# 
  1493  0F32                     	;# 
  1494  0F33                     	;# 
  1495  0F34                     	;# 
  1496  0F35                     	;# 
  1497  0F36                     	;# 
  1498  0F37                     	;# 
  1499  0FE4                     	;# 
  1500  0FE5                     	;# 
  1501  0FE6                     	;# 
  1502  0FE7                     	;# 
  1503  0FE8                     	;# 
  1504  0FE9                     	;# 
  1505  0FEA                     	;# 
  1506  0FEB                     	;# 
  1507  0FED                     	;# 
  1508  0FEE                     	;# 
  1509  0FEF                     	;# 
  1510  0000                     	;# 
  1511  0001                     	;# 
  1512  0002                     	;# 
  1513  0003                     	;# 
  1514  0004                     	;# 
  1515  0005                     	;# 
  1516  0006                     	;# 
  1517  0007                     	;# 
  1518  0008                     	;# 
  1519  0009                     	;# 
  1520  000A                     	;# 
  1521  000B                     	;# 
  1522  000C                     	;# 
  1523  000D                     	;# 
  1524  000E                     	;# 
  1525  0010                     	;# 
  1526  0011                     	;# 
  1527  0012                     	;# 
  1528  0013                     	;# 
  1529  0014                     	;# 
  1530  0015                     	;# 
  1531  0015                     	;# 
  1532  0016                     	;# 
  1533  0016                     	;# 
  1534  0017                     	;# 
  1535  0018                     	;# 
  1536  0019                     	;# 
  1537  0019                     	;# 
  1538  001A                     	;# 
  1539  001B                     	;# 
  1540  001C                     	;# 
  1541  001D                     	;# 
  1542  001E                     	;# 
  1543  001F                     	;# 
  1544  008C                     	;# 
  1545  008D                     	;# 
  1546  008E                     	;# 
  1547  0090                     	;# 
  1548  0091                     	;# 
  1549  0092                     	;# 
  1550  0093                     	;# 
  1551  0094                     	;# 
  1552  0097                     	;# 
  1553  009B                     	;# 
  1554  009B                     	;# 
  1555  009C                     	;# 
  1556  009D                     	;# 
  1557  009E                     	;# 
  1558  009F                     	;# 
  1559  010C                     	;# 
  1560  010D                     	;# 
  1561  010E                     	;# 
  1562  0111                     	;# 
  1563  0112                     	;# 
  1564  0113                     	;# 
  1565  0114                     	;# 
  1566  0115                     	;# 
  1567  0116                     	;# 
  1568  0117                     	;# 
  1569  0118                     	;# 
  1570  0119                     	;# 
  1571  018C                     	;# 
  1572  018D                     	;# 
  1573  018E                     	;# 
  1574  0197                     	;# 
  1575  0199                     	;# 
  1576  0199                     	;# 
  1577  0199                     	;# 
  1578  019A                     	;# 
  1579  019A                     	;# 
  1580  019A                     	;# 
  1581  019B                     	;# 
  1582  019B                     	;# 
  1583  019B                     	;# 
  1584  019B                     	;# 
  1585  019B                     	;# 
  1586  019C                     	;# 
  1587  019C                     	;# 
  1588  019C                     	;# 
  1589  019D                     	;# 
  1590  019D                     	;# 
  1591  019D                     	;# 
  1592  019E                     	;# 
  1593  019E                     	;# 
  1594  019E                     	;# 
  1595  019F                     	;# 
  1596  019F                     	;# 
  1597  019F                     	;# 
  1598  019F                     	;# 
  1599  019F                     	;# 
  1600  020C                     	;# 
  1601  020D                     	;# 
  1602  020E                     	;# 
  1603  0211                     	;# 
  1604  0211                     	;# 
  1605  0212                     	;# 
  1606  0212                     	;# 
  1607  0213                     	;# 
  1608  0213                     	;# 
  1609  0214                     	;# 
  1610  0214                     	;# 
  1611  0215                     	;# 
  1612  0215                     	;# 
  1613  0215                     	;# 
  1614  0215                     	;# 
  1615  0216                     	;# 
  1616  0216                     	;# 
  1617  0217                     	;# 
  1618  0217                     	;# 
  1619  0219                     	;# 
  1620  021A                     	;# 
  1621  021B                     	;# 
  1622  021C                     	;# 
  1623  021D                     	;# 
  1624  021D                     	;# 
  1625  021E                     	;# 
  1626  021F                     	;# 
  1627  028C                     	;# 
  1628  028D                     	;# 
  1629  028E                     	;# 
  1630  0291                     	;# 
  1631  0291                     	;# 
  1632  0292                     	;# 
  1633  0293                     	;# 
  1634  0294                     	;# 
  1635  0295                     	;# 
  1636  0295                     	;# 
  1637  0296                     	;# 
  1638  0297                     	;# 
  1639  0298                     	;# 
  1640  029F                     	;# 
  1641  030C                     	;# 
  1642  030D                     	;# 
  1643  030E                     	;# 
  1644  0311                     	;# 
  1645  0311                     	;# 
  1646  0312                     	;# 
  1647  0313                     	;# 
  1648  0314                     	;# 
  1649  0315                     	;# 
  1650  0315                     	;# 
  1651  0316                     	;# 
  1652  0317                     	;# 
  1653  0318                     	;# 
  1654  038C                     	;# 
  1655  038D                     	;# 
  1656  038E                     	;# 
  1657  0391                     	;# 
  1658  0392                     	;# 
  1659  0393                     	;# 
  1660  0394                     	;# 
  1661  0395                     	;# 
  1662  0396                     	;# 
  1663  0397                     	;# 
  1664  0398                     	;# 
  1665  0399                     	;# 
  1666  039A                     	;# 
  1667  039C                     	;# 
  1668  039D                     	;# 
  1669  039E                     	;# 
  1670  039F                     	;# 
  1671  0411                     	;# 
  1672  0411                     	;# 
  1673  0412                     	;# 
  1674  0413                     	;# 
  1675  0414                     	;# 
  1676  0415                     	;# 
  1677  0416                     	;# 
  1678  0417                     	;# 
  1679  0418                     	;# 
  1680  0418                     	;# 
  1681  0419                     	;# 
  1682  041A                     	;# 
  1683  041B                     	;# 
  1684  041C                     	;# 
  1685  041D                     	;# 
  1686  041E                     	;# 
  1687  041F                     	;# 
  1688  0498                     	;# 
  1689  0498                     	;# 
  1690  0499                     	;# 
  1691  049A                     	;# 
  1692  049B                     	;# 
  1693  049B                     	;# 
  1694  049C                     	;# 
  1695  049D                     	;# 
  1696  049E                     	;# 
  1697  049F                     	;# 
  1698  0617                     	;# 
  1699  0618                     	;# 
  1700  0619                     	;# 
  1701  0619                     	;# 
  1702  061A                     	;# 
  1703  061B                     	;# 
  1704  061C                     	;# 
  1705  061C                     	;# 
  1706  061F                     	;# 
  1707  0691                     	;# 
  1708  0692                     	;# 
  1709  0693                     	;# 
  1710  0694                     	;# 
  1711  0695                     	;# 
  1712  0696                     	;# 
  1713  0697                     	;# 
  1714  0698                     	;# 
  1715  0699                     	;# 
  1716  0711                     	;# 
  1717  0712                     	;# 
  1718  0713                     	;# 
  1719  0714                     	;# 
  1720  0715                     	;# 
  1721  0716                     	;# 
  1722  0717                     	;# 
  1723  0718                     	;# 
  1724  0719                     	;# 
  1725  0891                     	;# 
  1726  0891                     	;# 
  1727  0891                     	;# 
  1728  0891                     	;# 
  1729  0891                     	;# 
  1730  0891                     	;# 
  1731  0892                     	;# 
  1732  0892                     	;# 
  1733  0892                     	;# 
  1734  0893                     	;# 
  1735  0893                     	;# 
  1736  0893                     	;# 
  1737  0893                     	;# 
  1738  0893                     	;# 
  1739  0893                     	;# 
  1740  0894                     	;# 
  1741  0894                     	;# 
  1742  0894                     	;# 
  1743  0895                     	;# 
  1744  0895                     	;# 
  1745  0895                     	;# 
  1746  0896                     	;# 
  1747  0896                     	;# 
  1748  0896                     	;# 
  1749  089B                     	;# 
  1750  0911                     	;# 
  1751  0912                     	;# 
  1752  0913                     	;# 
  1753  0914                     	;# 
  1754  0915                     	;# 
  1755  0916                     	;# 
  1756  0918                     	;# 
  1757  0919                     	;# 
  1758  091A                     	;# 
  1759  091B                     	;# 
  1760  091C                     	;# 
  1761  091D                     	;# 
  1762  091E                     	;# 
  1763  091F                     	;# 
  1764  0E0F                     	;# 
  1765  0E10                     	;# 
  1766  0E11                     	;# 
  1767  0E12                     	;# 
  1768  0E13                     	;# 
  1769  0E14                     	;# 
  1770  0E15                     	;# 
  1771  0E16                     	;# 
  1772  0E17                     	;# 
  1773  0E18                     	;# 
  1774  0E19                     	;# 
  1775  0E1A                     	;# 
  1776  0E1B                     	;# 
  1777  0E1C                     	;# 
  1778  0E1D                     	;# 
  1779  0E1E                     	;# 
  1780  0E1F                     	;# 
  1781  0E20                     	;# 
  1782  0E21                     	;# 
  1783  0E22                     	;# 
  1784  0E24                     	;# 
  1785  0E25                     	;# 
  1786  0E28                     	;# 
  1787  0E29                     	;# 
  1788  0E2A                     	;# 
  1789  0E2B                     	;# 
  1790  0E2C                     	;# 
  1791  0E2D                     	;# 
  1792  0E2E                     	;# 
  1793  0E2F                     	;# 
  1794  0E90                     	;# 
  1795  0E91                     	;# 
  1796  0E92                     	;# 
  1797  0E94                     	;# 
  1798  0E95                     	;# 
  1799  0E9C                     	;# 
  1800  0E9D                     	;# 
  1801  0E9E                     	;# 
  1802  0E9F                     	;# 
  1803  0EA0                     	;# 
  1804  0EA1                     	;# 
  1805  0EA2                     	;# 
  1806  0EA3                     	;# 
  1807  0EA4                     	;# 
  1808  0EA5                     	;# 
  1809  0EA6                     	;# 
  1810  0EA7                     	;# 
  1811  0F0F                     	;# 
  1812  0F10                     	;# 
  1813  0F11                     	;# 
  1814  0F12                     	;# 
  1815  0F13                     	;# 
  1816  0F14                     	;# 
  1817  0F15                     	;# 
  1818  0F16                     	;# 
  1819  0F17                     	;# 
  1820  0F18                     	;# 
  1821  0F19                     	;# 
  1822  0F1A                     	;# 
  1823  0F1B                     	;# 
  1824  0F1C                     	;# 
  1825  0F1D                     	;# 
  1826  0F1E                     	;# 
  1827  0F1F                     	;# 
  1828  0F20                     	;# 
  1829  0F21                     	;# 
  1830  0F22                     	;# 
  1831  0F23                     	;# 
  1832  0F24                     	;# 
  1833  0F25                     	;# 
  1834  0F26                     	;# 
  1835  0F27                     	;# 
  1836  0F28                     	;# 
  1837  0F29                     	;# 
  1838  0F2A                     	;# 
  1839  0F2B                     	;# 
  1840  0F2C                     	;# 
  1841  0F2D                     	;# 
  1842  0F2E                     	;# 
  1843  0F2F                     	;# 
  1844  0F30                     	;# 
  1845  0F31                     	;# 
  1846  0F32                     	;# 
  1847  0F33                     	;# 
  1848  0F34                     	;# 
  1849  0F35                     	;# 
  1850  0F36                     	;# 
  1851  0F37                     	;# 
  1852  0FE4                     	;# 
  1853  0FE5                     	;# 
  1854  0FE6                     	;# 
  1855  0FE7                     	;# 
  1856  0FE8                     	;# 
  1857  0FE9                     	;# 
  1858  0FEA                     	;# 
  1859  0FEB                     	;# 
  1860  0FED                     	;# 
  1861  0FEE                     	;# 
  1862  0FEF                     	;# 
  1863  0000                     	;# 
  1864  0001                     	;# 
  1865  0002                     	;# 
  1866  0003                     	;# 
  1867  0004                     	;# 
  1868  0005                     	;# 
  1869  0006                     	;# 
  1870  0007                     	;# 
  1871  0008                     	;# 
  1872  0009                     	;# 
  1873  000A                     	;# 
  1874  000B                     	;# 
  1875  000C                     	;# 
  1876  000D                     	;# 
  1877  000E                     	;# 
  1878  0010                     	;# 
  1879  0011                     	;# 
  1880  0012                     	;# 
  1881  0013                     	;# 
  1882  0014                     	;# 
  1883  0015                     	;# 
  1884  0015                     	;# 
  1885  0016                     	;# 
  1886  0016                     	;# 
  1887  0017                     	;# 
  1888  0018                     	;# 
  1889  0019                     	;# 
  1890  0019                     	;# 
  1891  001A                     	;# 
  1892  001B                     	;# 
  1893  001C                     	;# 
  1894  001D                     	;# 
  1895  001E                     	;# 
  1896  001F                     	;# 
  1897  008C                     	;# 
  1898  008D                     	;# 
  1899  008E                     	;# 
  1900  0090                     	;# 
  1901  0091                     	;# 
  1902  0092                     	;# 
  1903  0093                     	;# 
  1904  0094                     	;# 
  1905  0097                     	;# 
  1906  009B                     	;# 
  1907  009B                     	;# 
  1908  009C                     	;# 
  1909  009D                     	;# 
  1910  009E                     	;# 
  1911  009F                     	;# 
  1912  010C                     	;# 
  1913  010D                     	;# 
  1914  010E                     	;# 
  1915  0111                     	;# 
  1916  0112                     	;# 
  1917  0113                     	;# 
  1918  0114                     	;# 
  1919  0115                     	;# 
  1920  0116                     	;# 
  1921  0117                     	;# 
  1922  0118                     	;# 
  1923  0119                     	;# 
  1924  018C                     	;# 
  1925  018D                     	;# 
  1926  018E                     	;# 
  1927  0197                     	;# 
  1928  0199                     	;# 
  1929  0199                     	;# 
  1930  0199                     	;# 
  1931  019A                     	;# 
  1932  019A                     	;# 
  1933  019A                     	;# 
  1934  019B                     	;# 
  1935  019B                     	;# 
  1936  019B                     	;# 
  1937  019B                     	;# 
  1938  019B                     	;# 
  1939  019C                     	;# 
  1940  019C                     	;# 
  1941  019C                     	;# 
  1942  019D                     	;# 
  1943  019D                     	;# 
  1944  019D                     	;# 
  1945  019E                     	;# 
  1946  019E                     	;# 
  1947  019E                     	;# 
  1948  019F                     	;# 
  1949  019F                     	;# 
  1950  019F                     	;# 
  1951  019F                     	;# 
  1952  019F                     	;# 
  1953  020C                     	;# 
  1954  020D                     	;# 
  1955  020E                     	;# 
  1956  0211                     	;# 
  1957  0211                     	;# 
  1958  0212                     	;# 
  1959  0212                     	;# 
  1960  0213                     	;# 
  1961  0213                     	;# 
  1962  0214                     	;# 
  1963  0214                     	;# 
  1964  0215                     	;# 
  1965  0215                     	;# 
  1966  0215                     	;# 
  1967  0215                     	;# 
  1968  0216                     	;# 
  1969  0216                     	;# 
  1970  0217                     	;# 
  1971  0217                     	;# 
  1972  0219                     	;# 
  1973  021A                     	;# 
  1974  021B                     	;# 
  1975  021C                     	;# 
  1976  021D                     	;# 
  1977  021D                     	;# 
  1978  021E                     	;# 
  1979  021F                     	;# 
  1980  028C                     	;# 
  1981  028D                     	;# 
  1982  028E                     	;# 
  1983  0291                     	;# 
  1984  0291                     	;# 
  1985  0292                     	;# 
  1986  0293                     	;# 
  1987  0294                     	;# 
  1988  0295                     	;# 
  1989  0295                     	;# 
  1990  0296                     	;# 
  1991  0297                     	;# 
  1992  0298                     	;# 
  1993  029F                     	;# 
  1994  030C                     	;# 
  1995  030D                     	;# 
  1996  030E                     	;# 
  1997  0311                     	;# 
  1998  0311                     	;# 
  1999  0312                     	;# 
  2000  0313                     	;# 
  2001  0314                     	;# 
  2002  0315                     	;# 
  2003  0315                     	;# 
  2004  0316                     	;# 
  2005  0317                     	;# 
  2006  0318                     	;# 
  2007  038C                     	;# 
  2008  038D                     	;# 
  2009  038E                     	;# 
  2010  0391                     	;# 
  2011  0392                     	;# 
  2012  0393                     	;# 
  2013  0394                     	;# 
  2014  0395                     	;# 
  2015  0396                     	;# 
  2016  0397                     	;# 
  2017  0398                     	;# 
  2018  0399                     	;# 
  2019  039A                     	;# 
  2020  039C                     	;# 
  2021  039D                     	;# 
  2022  039E                     	;# 
  2023  039F                     	;# 
  2024  0411                     	;# 
  2025  0411                     	;# 
  2026  0412                     	;# 
  2027  0413                     	;# 
  2028  0414                     	;# 
  2029  0415                     	;# 
  2030  0416                     	;# 
  2031  0417                     	;# 
  2032  0418                     	;# 
  2033  0418                     	;# 
  2034  0419                     	;# 
  2035  041A                     	;# 
  2036  041B                     	;# 
  2037  041C                     	;# 
  2038  041D                     	;# 
  2039  041E                     	;# 
  2040  041F                     	;# 
  2041  0498                     	;# 
  2042  0498                     	;# 
  2043  0499                     	;# 
  2044  049A                     	;# 
  2045  049B                     	;# 
  2046  049B                     	;# 
  2047  049C                     	;# 
  2048  049D                     	;# 
  2049  049E                     	;# 
  2050  049F                     	;# 
  2051  0617                     	;# 
  2052  0618                     	;# 
  2053  0619                     	;# 
  2054  0619                     	;# 
  2055  061A                     	;# 
  2056  061B                     	;# 
  2057  061C                     	;# 
  2058  061C                     	;# 
  2059  061F                     	;# 
  2060  0691                     	;# 
  2061  0692                     	;# 
  2062  0693                     	;# 
  2063  0694                     	;# 
  2064  0695                     	;# 
  2065  0696                     	;# 
  2066  0697                     	;# 
  2067  0698                     	;# 
  2068  0699                     	;# 
  2069  0711                     	;# 
  2070  0712                     	;# 
  2071  0713                     	;# 
  2072  0714                     	;# 
  2073  0715                     	;# 
  2074  0716                     	;# 
  2075  0717                     	;# 
  2076  0718                     	;# 
  2077  0719                     	;# 
  2078  0891                     	;# 
  2079  0891                     	;# 
  2080  0891                     	;# 
  2081  0891                     	;# 
  2082  0891                     	;# 
  2083  0891                     	;# 
  2084  0892                     	;# 
  2085  0892                     	;# 
  2086  0892                     	;# 
  2087  0893                     	;# 
  2088  0893                     	;# 
  2089  0893                     	;# 
  2090  0893                     	;# 
  2091  0893                     	;# 
  2092  0893                     	;# 
  2093  0894                     	;# 
  2094  0894                     	;# 
  2095  0894                     	;# 
  2096  0895                     	;# 
  2097  0895                     	;# 
  2098  0895                     	;# 
  2099  0896                     	;# 
  2100  0896                     	;# 
  2101  0896                     	;# 
  2102  089B                     	;# 
  2103  0911                     	;# 
  2104  0912                     	;# 
  2105  0913                     	;# 
  2106  0914                     	;# 
  2107  0915                     	;# 
  2108  0916                     	;# 
  2109  0918                     	;# 
  2110  0919                     	;# 
  2111  091A                     	;# 
  2112  091B                     	;# 
  2113  091C                     	;# 
  2114  091D                     	;# 
  2115  091E                     	;# 
  2116  091F                     	;# 
  2117  0E0F                     	;# 
  2118  0E10                     	;# 
  2119  0E11                     	;# 
  2120  0E12                     	;# 
  2121  0E13                     	;# 
  2122  0E14                     	;# 
  2123  0E15                     	;# 
  2124  0E16                     	;# 
  2125  0E17                     	;# 
  2126  0E18                     	;# 
  2127  0E19                     	;# 
  2128  0E1A                     	;# 
  2129  0E1B                     	;# 
  2130  0E1C                     	;# 
  2131  0E1D                     	;# 
  2132  0E1E                     	;# 
  2133  0E1F                     	;# 
  2134  0E20                     	;# 
  2135  0E21                     	;# 
  2136  0E22                     	;# 
  2137  0E24                     	;# 
  2138  0E25                     	;# 
  2139  0E28                     	;# 
  2140  0E29                     	;# 
  2141  0E2A                     	;# 
  2142  0E2B                     	;# 
  2143  0E2C                     	;# 
  2144  0E2D                     	;# 
  2145  0E2E                     	;# 
  2146  0E2F                     	;# 
  2147  0E90                     	;# 
  2148  0E91                     	;# 
  2149  0E92                     	;# 
  2150  0E94                     	;# 
  2151  0E95                     	;# 
  2152  0E9C                     	;# 
  2153  0E9D                     	;# 
  2154  0E9E                     	;# 
  2155  0E9F                     	;# 
  2156  0EA0                     	;# 
  2157  0EA1                     	;# 
  2158  0EA2                     	;# 
  2159  0EA3                     	;# 
  2160  0EA4                     	;# 
  2161  0EA5                     	;# 
  2162  0EA6                     	;# 
  2163  0EA7                     	;# 
  2164  0F0F                     	;# 
  2165  0F10                     	;# 
  2166  0F11                     	;# 
  2167  0F12                     	;# 
  2168  0F13                     	;# 
  2169  0F14                     	;# 
  2170  0F15                     	;# 
  2171  0F16                     	;# 
  2172  0F17                     	;# 
  2173  0F18                     	;# 
  2174  0F19                     	;# 
  2175  0F1A                     	;# 
  2176  0F1B                     	;# 
  2177  0F1C                     	;# 
  2178  0F1D                     	;# 
  2179  0F1E                     	;# 
  2180  0F1F                     	;# 
  2181  0F20                     	;# 
  2182  0F21                     	;# 
  2183  0F22                     	;# 
  2184  0F23                     	;# 
  2185  0F24                     	;# 
  2186  0F25                     	;# 
  2187  0F26                     	;# 
  2188  0F27                     	;# 
  2189  0F28                     	;# 
  2190  0F29                     	;# 
  2191  0F2A                     	;# 
  2192  0F2B                     	;# 
  2193  0F2C                     	;# 
  2194  0F2D                     	;# 
  2195  0F2E                     	;# 
  2196  0F2F                     	;# 
  2197  0F30                     	;# 
  2198  0F31                     	;# 
  2199  0F32                     	;# 
  2200  0F33                     	;# 
  2201  0F34                     	;# 
  2202  0F35                     	;# 
  2203  0F36                     	;# 
  2204  0F37                     	;# 
  2205  0FE4                     	;# 
  2206  0FE5                     	;# 
  2207  0FE6                     	;# 
  2208  0FE7                     	;# 
  2209  0FE8                     	;# 
  2210  0FE9                     	;# 
  2211  0FEA                     	;# 
  2212  0FEB                     	;# 
  2213  0FED                     	;# 
  2214  0FEE                     	;# 
  2215  0FEF                     	;# 
  2216  0000                     	;# 
  2217  0001                     	;# 
  2218  0002                     	;# 
  2219  0003                     	;# 
  2220  0004                     	;# 
  2221  0005                     	;# 
  2222  0006                     	;# 
  2223  0007                     	;# 
  2224  0008                     	;# 
  2225  0009                     	;# 
  2226  000A                     	;# 
  2227  000B                     	;# 
  2228  000C                     	;# 
  2229  000D                     	;# 
  2230  000E                     	;# 
  2231  0010                     	;# 
  2232  0011                     	;# 
  2233  0012                     	;# 
  2234  0013                     	;# 
  2235  0014                     	;# 
  2236  0015                     	;# 
  2237  0015                     	;# 
  2238  0016                     	;# 
  2239  0016                     	;# 
  2240  0017                     	;# 
  2241  0018                     	;# 
  2242  0019                     	;# 
  2243  0019                     	;# 
  2244  001A                     	;# 
  2245  001B                     	;# 
  2246  001C                     	;# 
  2247  001D                     	;# 
  2248  001E                     	;# 
  2249  001F                     	;# 
  2250  008C                     	;# 
  2251  008D                     	;# 
  2252  008E                     	;# 
  2253  0090                     	;# 
  2254  0091                     	;# 
  2255  0092                     	;# 
  2256  0093                     	;# 
  2257  0094                     	;# 
  2258  0097                     	;# 
  2259  009B                     	;# 
  2260  009B                     	;# 
  2261  009C                     	;# 
  2262  009D                     	;# 
  2263  009E                     	;# 
  2264  009F                     	;# 
  2265  010C                     	;# 
  2266  010D                     	;# 
  2267  010E                     	;# 
  2268  0111                     	;# 
  2269  0112                     	;# 
  2270  0113                     	;# 
  2271  0114                     	;# 
  2272  0115                     	;# 
  2273  0116                     	;# 
  2274  0117                     	;# 
  2275  0118                     	;# 
  2276  0119                     	;# 
  2277  018C                     	;# 
  2278  018D                     	;# 
  2279  018E                     	;# 
  2280  0197                     	;# 
  2281  0199                     	;# 
  2282  0199                     	;# 
  2283  0199                     	;# 
  2284  019A                     	;# 
  2285  019A                     	;# 
  2286  019A                     	;# 
  2287  019B                     	;# 
  2288  019B                     	;# 
  2289  019B                     	;# 
  2290  019B                     	;# 
  2291  019B                     	;# 
  2292  019C                     	;# 
  2293  019C                     	;# 
  2294  019C                     	;# 
  2295  019D                     	;# 
  2296  019D                     	;# 
  2297  019D                     	;# 
  2298  019E                     	;# 
  2299  019E                     	;# 
  2300  019E                     	;# 
  2301  019F                     	;# 
  2302  019F                     	;# 
  2303  019F                     	;# 
  2304  019F                     	;# 
  2305  019F                     	;# 
  2306  020C                     	;# 
  2307  020D                     	;# 
  2308  020E                     	;# 
  2309  0211                     	;# 
  2310  0211                     	;# 
  2311  0212                     	;# 
  2312  0212                     	;# 
  2313  0213                     	;# 
  2314  0213                     	;# 
  2315  0214                     	;# 
  2316  0214                     	;# 
  2317  0215                     	;# 
  2318  0215                     	;# 
  2319  0215                     	;# 
  2320  0215                     	;# 
  2321  0216                     	;# 
  2322  0216                     	;# 
  2323  0217                     	;# 
  2324  0217                     	;# 
  2325  0219                     	;# 
  2326  021A                     	;# 
  2327  021B                     	;# 
  2328  021C                     	;# 
  2329  021D                     	;# 
  2330  021D                     	;# 
  2331  021E                     	;# 
  2332  021F                     	;# 
  2333  028C                     	;# 
  2334  028D                     	;# 
  2335  028E                     	;# 
  2336  0291                     	;# 
  2337  0291                     	;# 
  2338  0292                     	;# 
  2339  0293                     	;# 
  2340  0294                     	;# 
  2341  0295                     	;# 
  2342  0295                     	;# 
  2343  0296                     	;# 
  2344  0297                     	;# 
  2345  0298                     	;# 
  2346  029F                     	;# 
  2347  030C                     	;# 
  2348  030D                     	;# 
  2349  030E                     	;# 
  2350  0311                     	;# 
  2351  0311                     	;# 
  2352  0312                     	;# 
  2353  0313                     	;# 
  2354  0314                     	;# 
  2355  0315                     	;# 
  2356  0315                     	;# 
  2357  0316                     	;# 
  2358  0317                     	;# 
  2359  0318                     	;# 
  2360  038C                     	;# 
  2361  038D                     	;# 
  2362  038E                     	;# 
  2363  0391                     	;# 
  2364  0392                     	;# 
  2365  0393                     	;# 
  2366  0394                     	;# 
  2367  0395                     	;# 
  2368  0396                     	;# 
  2369  0397                     	;# 
  2370  0398                     	;# 
  2371  0399                     	;# 
  2372  039A                     	;# 
  2373  039C                     	;# 
  2374  039D                     	;# 
  2375  039E                     	;# 
  2376  039F                     	;# 
  2377  0411                     	;# 
  2378  0411                     	;# 
  2379  0412                     	;# 
  2380  0413                     	;# 
  2381  0414                     	;# 
  2382  0415                     	;# 
  2383  0416                     	;# 
  2384  0417                     	;# 
  2385  0418                     	;# 
  2386  0418                     	;# 
  2387  0419                     	;# 
  2388  041A                     	;# 
  2389  041B                     	;# 
  2390  041C                     	;# 
  2391  041D                     	;# 
  2392  041E                     	;# 
  2393  041F                     	;# 
  2394  0498                     	;# 
  2395  0498                     	;# 
  2396  0499                     	;# 
  2397  049A                     	;# 
  2398  049B                     	;# 
  2399  049B                     	;# 
  2400  049C                     	;# 
  2401  049D                     	;# 
  2402  049E                     	;# 
  2403  049F                     	;# 
  2404  0617                     	;# 
  2405  0618                     	;# 
  2406  0619                     	;# 
  2407  0619                     	;# 
  2408  061A                     	;# 
  2409  061B                     	;# 
  2410  061C                     	;# 
  2411  061C                     	;# 
  2412  061F                     	;# 
  2413  0691                     	;# 
  2414  0692                     	;# 
  2415  0693                     	;# 
  2416  0694                     	;# 
  2417  0695                     	;# 
  2418  0696                     	;# 
  2419  0697                     	;# 
  2420  0698                     	;# 
  2421  0699                     	;# 
  2422  0711                     	;# 
  2423  0712                     	;# 
  2424  0713                     	;# 
  2425  0714                     	;# 
  2426  0715                     	;# 
  2427  0716                     	;# 
  2428  0717                     	;# 
  2429  0718                     	;# 
  2430  0719                     	;# 
  2431  0891                     	;# 
  2432  0891                     	;# 
  2433  0891                     	;# 
  2434  0891                     	;# 
  2435  0891                     	;# 
  2436  0891                     	;# 
  2437  0892                     	;# 
  2438  0892                     	;# 
  2439  0892                     	;# 
  2440  0893                     	;# 
  2441  0893                     	;# 
  2442  0893                     	;# 
  2443  0893                     	;# 
  2444  0893                     	;# 
  2445  0893                     	;# 
  2446  0894                     	;# 
  2447  0894                     	;# 
  2448  0894                     	;# 
  2449  0895                     	;# 
  2450  0895                     	;# 
  2451  0895                     	;# 
  2452  0896                     	;# 
  2453  0896                     	;# 
  2454  0896                     	;# 
  2455  089B                     	;# 
  2456  0911                     	;# 
  2457  0912                     	;# 
  2458  0913                     	;# 
  2459  0914                     	;# 
  2460  0915                     	;# 
  2461  0916                     	;# 
  2462  0918                     	;# 
  2463  0919                     	;# 
  2464  091A                     	;# 
  2465  091B                     	;# 
  2466  091C                     	;# 
  2467  091D                     	;# 
  2468  091E                     	;# 
  2469  091F                     	;# 
  2470  0E0F                     	;# 
  2471  0E10                     	;# 
  2472  0E11                     	;# 
  2473  0E12                     	;# 
  2474  0E13                     	;# 
  2475  0E14                     	;# 
  2476  0E15                     	;# 
  2477  0E16                     	;# 
  2478  0E17                     	;# 
  2479  0E18                     	;# 
  2480  0E19                     	;# 
  2481  0E1A                     	;# 
  2482  0E1B                     	;# 
  2483  0E1C                     	;# 
  2484  0E1D                     	;# 
  2485  0E1E                     	;# 
  2486  0E1F                     	;# 
  2487  0E20                     	;# 
  2488  0E21                     	;# 
  2489  0E22                     	;# 
  2490  0E24                     	;# 
  2491  0E25                     	;# 
  2492  0E28                     	;# 
  2493  0E29                     	;# 
  2494  0E2A                     	;# 
  2495  0E2B                     	;# 
  2496  0E2C                     	;# 
  2497  0E2D                     	;# 
  2498  0E2E                     	;# 
  2499  0E2F                     	;# 
  2500  0E90                     	;# 
  2501  0E91                     	;# 
  2502  0E92                     	;# 
  2503  0E94                     	;# 
  2504  0E95                     	;# 
  2505  0E9C                     	;# 
  2506  0E9D                     	;# 
  2507  0E9E                     	;# 
  2508  0E9F                     	;# 
  2509  0EA0                     	;# 
  2510  0EA1                     	;# 
  2511  0EA2                     	;# 
  2512  0EA3                     	;# 
  2513  0EA4                     	;# 
  2514  0EA5                     	;# 
  2515  0EA6                     	;# 
  2516  0EA7                     	;# 
  2517  0F0F                     	;# 
  2518  0F10                     	;# 
  2519  0F11                     	;# 
  2520  0F12                     	;# 
  2521  0F13                     	;# 
  2522  0F14                     	;# 
  2523  0F15                     	;# 
  2524  0F16                     	;# 
  2525  0F17                     	;# 
  2526  0F18                     	;# 
  2527  0F19                     	;# 
  2528  0F1A                     	;# 
  2529  0F1B                     	;# 
  2530  0F1C                     	;# 
  2531  0F1D                     	;# 
  2532  0F1E                     	;# 
  2533  0F1F                     	;# 
  2534  0F20                     	;# 
  2535  0F21                     	;# 
  2536  0F22                     	;# 
  2537  0F23                     	;# 
  2538  0F24                     	;# 
  2539  0F25                     	;# 
  2540  0F26                     	;# 
  2541  0F27                     	;# 
  2542  0F28                     	;# 
  2543  0F29                     	;# 
  2544  0F2A                     	;# 
  2545  0F2B                     	;# 
  2546  0F2C                     	;# 
  2547  0F2D                     	;# 
  2548  0F2E                     	;# 
  2549  0F2F                     	;# 
  2550  0F30                     	;# 
  2551  0F31                     	;# 
  2552  0F32                     	;# 
  2553  0F33                     	;# 
  2554  0F34                     	;# 
  2555  0F35                     	;# 
  2556  0F36                     	;# 
  2557  0F37                     	;# 
  2558  0FE4                     	;# 
  2559  0FE5                     	;# 
  2560  0FE6                     	;# 
  2561  0FE7                     	;# 
  2562  0FE8                     	;# 
  2563  0FE9                     	;# 
  2564  0FEA                     	;# 
  2565  0FEB                     	;# 
  2566  0FED                     	;# 
  2567  0FEE                     	;# 
  2568  0FEF                     	;# 
  2569  0000                     	;# 
  2570  0001                     	;# 
  2571  0002                     	;# 
  2572  0003                     	;# 
  2573  0004                     	;# 
  2574  0005                     	;# 
  2575  0006                     	;# 
  2576  0007                     	;# 
  2577  0008                     	;# 
  2578  0009                     	;# 
  2579  000A                     	;# 
  2580  000B                     	;# 
  2581  000C                     	;# 
  2582  000D                     	;# 
  2583  000E                     	;# 
  2584  0010                     	;# 
  2585  0011                     	;# 
  2586  0012                     	;# 
  2587  0013                     	;# 
  2588  0014                     	;# 
  2589  0015                     	;# 
  2590  0015                     	;# 
  2591  0016                     	;# 
  2592  0016                     	;# 
  2593  0017                     	;# 
  2594  0018                     	;# 
  2595  0019                     	;# 
  2596  0019                     	;# 
  2597  001A                     	;# 
  2598  001B                     	;# 
  2599  001C                     	;# 
  2600  001D                     	;# 
  2601  001E                     	;# 
  2602  001F                     	;# 
  2603  008C                     	;# 
  2604  008D                     	;# 
  2605  008E                     	;# 
  2606  0090                     	;# 
  2607  0091                     	;# 
  2608  0092                     	;# 
  2609  0093                     	;# 
  2610  0094                     	;# 
  2611  0097                     	;# 
  2612  009B                     	;# 
  2613  009B                     	;# 
  2614  009C                     	;# 
  2615  009D                     	;# 
  2616  009E                     	;# 
  2617  009F                     	;# 
  2618  010C                     	;# 
  2619  010D                     	;# 
  2620  010E                     	;# 
  2621  0111                     	;# 
  2622  0112                     	;# 
  2623  0113                     	;# 
  2624  0114                     	;# 
  2625  0115                     	;# 
  2626  0116                     	;# 
  2627  0117                     	;# 
  2628  0118                     	;# 
  2629  0119                     	;# 
  2630  018C                     	;# 
  2631  018D                     	;# 
  2632  018E                     	;# 
  2633  0197                     	;# 
  2634  0199                     	;# 
  2635  0199                     	;# 
  2636  0199                     	;# 
  2637  019A                     	;# 
  2638  019A                     	;# 
  2639  019A                     	;# 
  2640  019B                     	;# 
  2641  019B                     	;# 
  2642  019B                     	;# 
  2643  019B                     	;# 
  2644  019B                     	;# 
  2645  019C                     	;# 
  2646  019C                     	;# 
  2647  019C                     	;# 
  2648  019D                     	;# 
  2649  019D                     	;# 
  2650  019D                     	;# 
  2651  019E                     	;# 
  2652  019E                     	;# 
  2653  019E                     	;# 
  2654  019F                     	;# 
  2655  019F                     	;# 
  2656  019F                     	;# 
  2657  019F                     	;# 
  2658  019F                     	;# 
  2659  020C                     	;# 
  2660  020D                     	;# 
  2661  020E                     	;# 
  2662  0211                     	;# 
  2663  0211                     	;# 
  2664  0212                     	;# 
  2665  0212                     	;# 
  2666  0213                     	;# 
  2667  0213                     	;# 
  2668  0214                     	;# 
  2669  0214                     	;# 
  2670  0215                     	;# 
  2671  0215                     	;# 
  2672  0215                     	;# 
  2673  0215                     	;# 
  2674  0216                     	;# 
  2675  0216                     	;# 
  2676  0217                     	;# 
  2677  0217                     	;# 
  2678  0219                     	;# 
  2679  021A                     	;# 
  2680  021B                     	;# 
  2681  021C                     	;# 
  2682  021D                     	;# 
  2683  021D                     	;# 
  2684  021E                     	;# 
  2685  021F                     	;# 
  2686  028C                     	;# 
  2687  028D                     	;# 
  2688  028E                     	;# 
  2689  0291                     	;# 
  2690  0291                     	;# 
  2691  0292                     	;# 
  2692  0293                     	;# 
  2693  0294                     	;# 
  2694  0295                     	;# 
  2695  0295                     	;# 
  2696  0296                     	;# 
  2697  0297                     	;# 
  2698  0298                     	;# 
  2699  029F                     	;# 
  2700  030C                     	;# 
  2701  030D                     	;# 
  2702  030E                     	;# 
  2703  0311                     	;# 
  2704  0311                     	;# 
  2705  0312                     	;# 
  2706  0313                     	;# 
  2707  0314                     	;# 
  2708  0315                     	;# 
  2709  0315                     	;# 
  2710  0316                     	;# 
  2711  0317                     	;# 
  2712  0318                     	;# 
  2713  038C                     	;# 
  2714  038D                     	;# 
  2715  038E                     	;# 
  2716  0391                     	;# 
  2717  0392                     	;# 
  2718  0393                     	;# 
  2719  0394                     	;# 
  2720  0395                     	;# 
  2721  0396                     	;# 
  2722  0397                     	;# 
  2723  0398                     	;# 
  2724  0399                     	;# 
  2725  039A                     	;# 
  2726  039C                     	;# 
  2727  039D                     	;# 
  2728  039E                     	;# 
  2729  039F                     	;# 
  2730  0411                     	;# 
  2731  0411                     	;# 
  2732  0412                     	;# 
  2733  0413                     	;# 
  2734  0414                     	;# 
  2735  0415                     	;# 
  2736  0416                     	;# 
  2737  0417                     	;# 
  2738  0418                     	;# 
  2739  0418                     	;# 
  2740  0419                     	;# 
  2741  041A                     	;# 
  2742  041B                     	;# 
  2743  041C                     	;# 
  2744  041D                     	;# 
  2745  041E                     	;# 
  2746  041F                     	;# 
  2747  0498                     	;# 
  2748  0498                     	;# 
  2749  0499                     	;# 
  2750  049A                     	;# 
  2751  049B                     	;# 
  2752  049B                     	;# 
  2753  049C                     	;# 
  2754  049D                     	;# 
  2755  049E                     	;# 
  2756  049F                     	;# 
  2757  0617                     	;# 
  2758  0618                     	;# 
  2759  0619                     	;# 
  2760  0619                     	;# 
  2761  061A                     	;# 
  2762  061B                     	;# 
  2763  061C                     	;# 
  2764  061C                     	;# 
  2765  061F                     	;# 
  2766  0691                     	;# 
  2767  0692                     	;# 
  2768  0693                     	;# 
  2769  0694                     	;# 
  2770  0695                     	;# 
  2771  0696                     	;# 
  2772  0697                     	;# 
  2773  0698                     	;# 
  2774  0699                     	;# 
  2775  0711                     	;# 
  2776  0712                     	;# 
  2777  0713                     	;# 
  2778  0714                     	;# 
  2779  0715                     	;# 
  2780  0716                     	;# 
  2781  0717                     	;# 
  2782  0718                     	;# 
  2783  0719                     	;# 
  2784  0891                     	;# 
  2785  0891                     	;# 
  2786  0891                     	;# 
  2787  0891                     	;# 
  2788  0891                     	;# 
  2789  0891                     	;# 
  2790  0892                     	;# 
  2791  0892                     	;# 
  2792  0892                     	;# 
  2793  0893                     	;# 
  2794  0893                     	;# 
  2795  0893                     	;# 
  2796  0893                     	;# 
  2797  0893                     	;# 
  2798  0893                     	;# 
  2799  0894                     	;# 
  2800  0894                     	;# 
  2801  0894                     	;# 
  2802  0895                     	;# 
  2803  0895                     	;# 
  2804  0895                     	;# 
  2805  0896                     	;# 
  2806  0896                     	;# 
  2807  0896                     	;# 
  2808  089B                     	;# 
  2809  0911                     	;# 
  2810  0912                     	;# 
  2811  0913                     	;# 
  2812  0914                     	;# 
  2813  0915                     	;# 
  2814  0916                     	;# 
  2815  0918                     	;# 
  2816  0919                     	;# 
  2817  091A                     	;# 
  2818  091B                     	;# 
  2819  091C                     	;# 
  2820  091D                     	;# 
  2821  091E                     	;# 
  2822  091F                     	;# 
  2823  0E0F                     	;# 
  2824  0E10                     	;# 
  2825  0E11                     	;# 
  2826  0E12                     	;# 
  2827  0E13                     	;# 
  2828  0E14                     	;# 
  2829  0E15                     	;# 
  2830  0E16                     	;# 
  2831  0E17                     	;# 
  2832  0E18                     	;# 
  2833  0E19                     	;# 
  2834  0E1A                     	;# 
  2835  0E1B                     	;# 
  2836  0E1C                     	;# 
  2837  0E1D                     	;# 
  2838  0E1E                     	;# 
  2839  0E1F                     	;# 
  2840  0E20                     	;# 
  2841  0E21                     	;# 
  2842  0E22                     	;# 
  2843  0E24                     	;# 
  2844  0E25                     	;# 
  2845  0E28                     	;# 
  2846  0E29                     	;# 
  2847  0E2A                     	;# 
  2848  0E2B                     	;# 
  2849  0E2C                     	;# 
  2850  0E2D                     	;# 
  2851  0E2E                     	;# 
  2852  0E2F                     	;# 
  2853  0E90                     	;# 
  2854  0E91                     	;# 
  2855  0E92                     	;# 
  2856  0E94                     	;# 
  2857  0E95                     	;# 
  2858  0E9C                     	;# 
  2859  0E9D                     	;# 
  2860  0E9E                     	;# 
  2861  0E9F                     	;# 
  2862  0EA0                     	;# 
  2863  0EA1                     	;# 
  2864  0EA2                     	;# 
  2865  0EA3                     	;# 
  2866  0EA4                     	;# 
  2867  0EA5                     	;# 
  2868  0EA6                     	;# 
  2869  0EA7                     	;# 
  2870  0F0F                     	;# 
  2871  0F10                     	;# 
  2872  0F11                     	;# 
  2873  0F12                     	;# 
  2874  0F13                     	;# 
  2875  0F14                     	;# 
  2876  0F15                     	;# 
  2877  0F16                     	;# 
  2878  0F17                     	;# 
  2879  0F18                     	;# 
  2880  0F19                     	;# 
  2881  0F1A                     	;# 
  2882  0F1B                     	;# 
  2883  0F1C                     	;# 
  2884  0F1D                     	;# 
  2885  0F1E                     	;# 
  2886  0F1F                     	;# 
  2887  0F20                     	;# 
  2888  0F21                     	;# 
  2889  0F22                     	;# 
  2890  0F23                     	;# 
  2891  0F24                     	;# 
  2892  0F25                     	;# 
  2893  0F26                     	;# 
  2894  0F27                     	;# 
  2895  0F28                     	;# 
  2896  0F29                     	;# 
  2897  0F2A                     	;# 
  2898  0F2B                     	;# 
  2899  0F2C                     	;# 
  2900  0F2D                     	;# 
  2901  0F2E                     	;# 
  2902  0F2F                     	;# 
  2903  0F30                     	;# 
  2904  0F31                     	;# 
  2905  0F32                     	;# 
  2906  0F33                     	;# 
  2907  0F34                     	;# 
  2908  0F35                     	;# 
  2909  0F36                     	;# 
  2910  0F37                     	;# 
  2911  0FE4                     	;# 
  2912  0FE5                     	;# 
  2913  0FE6                     	;# 
  2914  0FE7                     	;# 
  2915  0FE8                     	;# 
  2916  0FE9                     	;# 
  2917  0FEA                     	;# 
  2918  0FEB                     	;# 
  2919  0FED                     	;# 
  2920  0FEE                     	;# 
  2921  0FEF                     	;_spi1_send_buffer_data
  2922                           
  2923                           	psect	idataBANK0
  2924  0611                     __pidataBANK0:	
  2925                           
  2926                           ;initializer for _st_dataLength
  2927  0611  34FF               	retlw	255
  2928  0612  34FF               	retlw	255
  2929                           
  2930                           	psect	stringtext1
  2931  0613                     __pstringtext1:	
  2932  0613                     _MACHINE_ID:	
  2933  0613  3401               	retlw	1
  2934  0614  3400               	retlw	0
  2935  0615                     __end_of_MACHINE_ID:	
  2936                           
  2937                           	psect	stringtext2
  2938  0615                     __pstringtext2:	
  2939  0615                     _VENDER_ID:	
  2940  0615  3401               	retlw	1
  2941  0616  3400               	retlw	0
  2942  0617                     __end_of_VENDER_ID:	
  2943                           
  2944                           	psect	bitnvBANK0
  2945  0368                     __pbitnvBANK0:	
  2946  0368                     _isEndPointTrig:	
  2947  0368                     	ds	1
  2948  0369                     _isMycargo:	
  2949  0369                     	ds	1
  2950  000E                     _PORTC	set	14
  2951  000D                     _PORTB	set	13
  2952  000C                     _PORTA	set	12
  2953  000B                     _INTCONbits	set	11
  2954  0010                     _PIR0bits	set	16
  2955  0012                     _PIR2bits	set	18
  2956  0011                     _PIR1bits	set	17
  2957  008E                     _TRISC	set	142
  2958  008D                     _TRISB	set	141
  2959  008C                     _TRISA	set	140
  2960  0092                     _PIE2bits	set	146
  2961  0091                     _PIE1bits	set	145
  2962  0090                     _PIE0bits	set	144
  2963  008E                     _TRISCbits	set	142
  2964  008D                     _TRISBbits	set	141
  2965  010C                     _LATAbits	set	268
  2966  018E                     _ANSELC	set	398
  2967  018D                     _ANSELB	set	397
  2968  018C                     _ANSELA	set	396
  2969  021C                     _SSP2STATbits	set	540
  2970  021D                     _SSP2CON1bits	set	541
  2971  021F                     _SSP2CON3bits	set	543
  2972  0214                     _SSP1STATbits	set	532
  2973  0215                     _SSP1CON1bits	set	533
  2974  0217                     _SSP1CON3bits	set	535
  2975  020C                     _WPUA	set	524
  2976  020D                     _WPUB	set	525
  2977  020E                     _WPUC	set	526
  2978  0219                     _SSP2BUF	set	537
  2979  0211                     _SSP1BUF	set	529
  2980  038C                     _INLVLAbits	set	908
  2981  038E                     _INLVLCbits	set	910
  2982  038D                     _INLVLBbits	set	909
  2983  091E                     _OSCTUNEbits	set	2334
  2984  091F                     _OSCFRQbits	set	2335
  2985  0E1F                     _SSP2SSPPSbits	set	3615
  2986  0E22                     _SSP1SSPPSbits	set	3618
  2987  0E9F                     _RB7PPS	set	3743
  2988  0E92                     _RA2PPS	set	3730
  2989  0EA2                     _RC2PPS	set	3746
  2990                           
  2991                           ; #config settings
  2992  0000                     
  2993                           	psect	cinit
  2994  0054                     start_initialization:	
  2995  0054                     __initialization:		;BIGRAM
  2996                           
  2997                           ; Initialize objects allocated to BANK0
  2998  0054  3186  2611  3180   	fcall	__pidataBANK0	;fetch initializer
  2999  0057  00EE               	movwf	__pdataBANK0& (0+127)
  3000  0058  3186  2612  3180   	fcall	__pidataBANK0+1	;fetch initializer
  3001  005B  00EF               	movwf	(__pdataBANK0+1)& (0+127)
  3002                           
  3003                           ; Clear objects allocated to BIGRAM
  3004  005C  30F0               	movlw	low (0+9456)
  3005  005D  0084               	movwf	4
  3006  005E  3024               	movlw	high (0+9456)
  3007  005F  0085               	movwf	5
  3008  0060  3000               	movlw	0
  3009  0061  00FE               	movwf	btemp
  3010  0062  3003               	movlw	3
  3011  0063  00FF               	movwf	btemp+1
  3012  0064  3185  25DC  3180   	fcall	clear_ram0
  3013                           
  3014                           ; Clear objects allocated to BITCOMMON
  3015  0067  01F7               	clrf	(__pbitbssCOMMON/(0+8))& (0+127)
  3016                           
  3017                           ; Clear objects allocated to BANK0
  3018  0068  3020               	movlw	low __pbssBANK0
  3019  0069  0084               	movwf	4
  3020  006A  3000               	movlw	high __pbssBANK0
  3021  006B  0085               	movwf	5
  3022  006C  3040               	movlw	64
  3023  006D  00FE               	movwf	btemp
  3024  006E  3000               	movlw	0
  3025  006F  00FF               	movwf	btemp+1
  3026  0070  3185  25DC  3180   	fcall	clear_ram0
  3027                           
  3028                           ; Clear objects allocated to BANK1
  3029  0073  30A0               	movlw	low __pbssBANK1
  3030  0074  0084               	movwf	4
  3031  0075  3000               	movlw	high __pbssBANK1
  3032  0076  0085               	movwf	5
  3033  0077  3028               	movlw	40
  3034  0078  00FE               	movwf	btemp
  3035  0079  3000               	movlw	0
  3036  007A  00FF               	movwf	btemp+1
  3037  007B  3185  25DC         	fcall	clear_ram0
  3038  007D                     end_of_initialization:	
  3039                           ;End of C runtime variable initialization code
  3040                           
  3041  007D                     __end_of__initialization:	
  3042  007D  107E               	bcf	int$flags,0	;clear compiler interrupt flag (level 1)
  3043  007E  0020               	movlb	0
  3044  007F  3184  2C36         	ljmp	_main	;jump to C main() function
  3045                           
  3046                           	psect	bitbssCOMMON
  3047  03B8                     __pbitbssCOMMON:	
  3048  03B8                     _workingcounta3:	
  3049  03B8                     	ds	1
  3050  03B9                     _workingcounta2:	
  3051  03B9                     	ds	1
  3052  03BA                     _workingcounta1:	
  3053  03BA                     	ds	1
  3054  03BB                     _workingcounta0:	
  3055  03BB                     	ds	1
  3056  03BC                     _isreadTrain:	
  3057  03BC                     	ds	1
  3058  03BD                     _isCalibrated:	
  3059  03BD                     	ds	1
  3060                           
  3061                           	psect	bssBANK0
  3062  0020                     __pbssBANK0:	
  3063  0020                     _cargoData:	
  3064  0020                     	ds	16
  3065  0030                     _calibdata:	
  3066  0030                     	ds	9
  3067  0039                     _linkInfo:	
  3068  0039                     	ds	6
  3069  003F                     _startTrainBytes:	
  3070  003F                     	ds	4
  3071  0043                     _linkAngle:	
  3072  0043                     	ds	2
  3073  0045                     _cargoLengthnuf:	
  3074  0045                     	ds	2
  3075  0047                     _send_count1:	
  3076  0047                     	ds	2
  3077  0049                     _spi1_send_count:	
  3078  0049                     	ds	2
  3079  004B                     _counta2:	
  3080  004B                     	ds	2
  3081  004D                     _trainPos:	
  3082  004D                     	ds	2
  3083  004F                     _read_count2:	
  3084  004F                     	ds	2
  3085  0051                     _countabuf:	
  3086  0051                     	ds	2
  3087  0053                     _read_count1:	
  3088  0053                     	ds	2
  3089  0055                     _count2:	
  3090  0055                     	ds	2
  3091  0057                     _count1:	
  3092  0057                     	ds	2
  3093  0059                     _readNG:	
  3094  0059                     	ds	1
  3095  005A                     _readOK:	
  3096  005A                     	ds	1
  3097  005B                     _spi2_Read_data:	
  3098  005B                     	ds	1
  3099  005C                     _spi1_Read_data:	
  3100  005C                     	ds	1
  3101  005D                     _send_data:	
  3102  005D                     	ds	1
  3103  005E                     _st_type:	
  3104  005E                     	ds	1
  3105  005F                     _spi2_Send_data:	
  3106  005F                     	ds	1
  3107                           
  3108                           	psect	dataBANK0
  3109  006E                     __pdataBANK0:	
  3110  006E                     _st_dataLength:	
  3111  006E                     	ds	2
  3112                           
  3113                           	psect	bssBANK1
  3114  00A0                     __pbssBANK1:	
  3115  00A0                     _comu_types:	
  3116  00A0                     	ds	18
  3117  00B2                     _command:	
  3118  00B2                     	ds	18
  3119  00C4                     _cargoWorkingCount:	
  3120  00C4                     	ds	4
  3121                           
  3122                           	psect	clrtext
  3123  05DC                     clear_ram0:	
  3124                           ;	Called with FSR0 containing the base address, and
  3125                           ;	btemp/btemp+1 has the size to clear
  3126                           
  3127  05DC  0064               	clrwdt	;clear the watchdog before getting into this loop
  3128  05DD                     clrloop0:	
  3129  05DD  0180               	clrf	0	;clear RAM location pointed to by FSR
  3130  05DE  3101               	addfsr 0,1
  3131  05DF  3001               	movlw	1
  3132  05E0  02FE               	subwf	126,f
  3133  05E1  3000               	movlw	0
  3134  05E2  3BFF               	subwfb	127,f
  3135  05E3  087F               	movf	127,w
  3136  05E4  047E               	iorwf	126,w
  3137  05E5  1903               	btfsc	3,2
  3138  05E6  3400               	retlw	0	;all done for this memory range, return
  3139  05E7  2DDD               	goto	clrloop0	;have we reached the end yet?
  3140                           
  3141                           	psect	cstackBANK1
  3142  00C8                     __pcstackBANK1:	
  3143  00C8                     Calibrate_download@buflong:	
  3144                           
  3145                           ; 4 bytes @ 0x0
  3146  00C8                     	ds	4
  3147  00CC                     Calibrate_download@buf:	
  3148                           
  3149                           ; 1 bytes @ 0x4
  3150  00CC                     	ds	1
  3151  00CD                     Calibrate_download@bufint:	
  3152                           
  3153                           ; 2 bytes @ 0x5
  3154  00CD                     	ds	2
  3155  00CF                     Calibrate_download@spi_Read_data:	
  3156                           
  3157                           ; 1 bytes @ 0x7
  3158  00CF                     	ds	1
  3159  00D0                     ??_setComunicateMode:	
  3160                           
  3161                           ; 1 bytes @ 0x8
  3162  00D0                     	ds	1
  3163  00D1                     setComunicateMode@m_type:	
  3164                           
  3165                           ; 1 bytes @ 0x9
  3166  00D1                     	ds	1
  3167  00D2                     setComunicateMode@i:	
  3168                           
  3169                           ; 2 bytes @ 0xA
  3170  00D2                     	ds	2
  3171                           
  3172                           	psect	cstackCOMMON
  3173  0070                     __pcstackCOMMON:	
  3174  0070                     ?_isTrainSt:	
  3175  0070                     ?_isSPI1read:	
  3176                           ; 1 bit 
  3177                           
  3178  0070                     ?_setComunicateMode:	
  3179                           ; 1 bit 
  3180                           
  3181  0070                     ?_isSPI2read:	
  3182                           ; 1 bit 
  3183                           
  3184  0070                     ?_clutchaction:	
  3185                           ; 1 bit 
  3186                           
  3187  0070                     ?_isEndpoint:	
  3188                           ; 1 bit 
  3189                           
  3190  0070                     ?_setSPI1sendData:	
  3191                           ; 1 bit 
  3192                           
  3193  0070                     ??_setSPI1sendData:	
  3194                           ; 1 bytes @ 0x0
  3195                           
  3196  0070                     ?_clear:	
  3197                           ; 1 bytes @ 0x0
  3198                           
  3199  0070                     ?_resetTrainData:	
  3200                           ; 1 bytes @ 0x0
  3201                           
  3202  0070                     ?_initComand:	
  3203                           ; 1 bytes @ 0x0
  3204                           
  3205  0070                     ?_initComu_types:	
  3206                           ; 1 bytes @ 0x0
  3207                           
  3208  0070                     ?_InitCalibrate:	
  3209                           ; 1 bytes @ 0x0
  3210                           
  3211  0070                     ?_spi_init:	
  3212                           ; 1 bytes @ 0x0
  3213                           
  3214  0070                     ?_initCargo:	
  3215                           ; 1 bytes @ 0x0
  3216                           
  3217  0070                     ?_read_train:	
  3218                           ; 1 bytes @ 0x0
  3219                           
  3220  0070                     ?_setSPI2sendData:	
  3221                           ; 1 bytes @ 0x0
  3222                           
  3223  0070                     ?_restartCargo:	
  3224                           ; 1 bytes @ 0x0
  3225                           
  3226  0070                     ?_spi1_init:	
  3227                           ; 1 bytes @ 0x0
  3228                           
  3229  0070                     ?_spi2_init:	
  3230                           ; 1 bytes @ 0x0
  3231                           
  3232  0070                     ?_readCargo:	
  3233                           ; 1 bytes @ 0x0
  3234                           
  3235  0070                     ?_InterMSSP:	
  3236                           ; 1 bytes @ 0x0
  3237                           
  3238  0070                     ?_initbuffer:	
  3239                           ; 1 bytes @ 0x0
  3240                           
  3241  0070                     ?_init:	
  3242                           ; 1 bytes @ 0x0
  3243                           
  3244  0070                     ?_io_init:	
  3245                           ; 1 bytes @ 0x0
  3246                           
  3247  0070                     ?_initTrain:	
  3248                           ; 1 bytes @ 0x0
  3249                           
  3250  0070                     ?_main:	
  3251                           ; 1 bytes @ 0x0
  3252                           
  3253  0070                     ??_isSPI2read:	
  3254                           ; 1 bytes @ 0x0
  3255                           
  3256  0070                     ?_setSPI1sendDataManual:	
  3257                           ; 1 bytes @ 0x0
  3258                           
  3259  0070                     ?_Calibrate_download:	
  3260                           ; 1 bytes @ 0x0
  3261                           
  3262                           
  3263                           ; 1 bytes @ 0x0
  3264  0070                     	ds	2
  3265  0072                     ??_InterMSSP:	
  3266                           
  3267                           ; 1 bytes @ 0x2
  3268  0072                     	ds	5
  3269                           
  3270                           	psect	cstackBANK0
  3271  0060                     __pcstackBANK0:	
  3272  0060                     ??_clear:	
  3273  0060                     ??_isTrainSt:	
  3274                           ; 1 bytes @ 0x0
  3275                           
  3276  0060                     ??_resetTrainData:	
  3277                           ; 1 bytes @ 0x0
  3278                           
  3279  0060                     ??_initComand:	
  3280                           ; 1 bytes @ 0x0
  3281                           
  3282  0060                     ??_initComu_types:	
  3283                           ; 1 bytes @ 0x0
  3284                           
  3285  0060                     ??_InitCalibrate:	
  3286                           ; 1 bytes @ 0x0
  3287                           
  3288  0060                     ??_initCargo:	
  3289                           ; 1 bytes @ 0x0
  3290                           
  3291  0060                     ??_isSPI1read:	
  3292                           ; 1 bytes @ 0x0
  3293                           
  3294  0060                     ??_read_train:	
  3295                           ; 1 bytes @ 0x0
  3296                           
  3297  0060                     ??_setSPI2sendData:	
  3298                           ; 1 bytes @ 0x0
  3299                           
  3300  0060                     ??_restartCargo:	
  3301                           ; 1 bytes @ 0x0
  3302                           
  3303  0060                     ??_spi1_init:	
  3304                           ; 1 bytes @ 0x0
  3305                           
  3306  0060                     ??_spi2_init:	
  3307                           ; 1 bytes @ 0x0
  3308                           
  3309  0060                     ??_initbuffer:	
  3310                           ; 1 bytes @ 0x0
  3311                           
  3312  0060                     ??_io_init:	
  3313                           ; 1 bytes @ 0x0
  3314                           
  3315  0060                     ??_setSPI1sendDataManual:	
  3316                           ; 1 bytes @ 0x0
  3317                           
  3318  0060                     ??_clutchaction:	
  3319                           ; 1 bytes @ 0x0
  3320                           
  3321  0060                     setSPI1sendDataManual@data:	
  3322                           ; 1 bytes @ 0x0
  3323                           
  3324  0060                     clutchaction@comannd:	
  3325                           ; 1 bytes @ 0x0
  3326                           
  3327                           
  3328                           ; 1 bytes @ 0x0
  3329  0060                     	ds	1
  3330  0061                     ??_readCargo:	
  3331  0061                     ??_isEndpoint:	
  3332                           ; 1 bytes @ 0x1
  3333                           
  3334  0061                     spi1_init@dummy:	
  3335                           ; 1 bytes @ 0x1
  3336                           
  3337  0061                     spi2_init@dummy:	
  3338                           ; 1 bytes @ 0x1
  3339                           
  3340                           
  3341                           ; 1 bytes @ 0x1
  3342  0061                     	ds	1
  3343  0062                     ??_spi_init:	
  3344  0062                     initbuffer@i:	
  3345                           ; 1 bytes @ 0x2
  3346                           
  3347  0062                     read_train@bufint:	
  3348                           ; 2 bytes @ 0x2
  3349                           
  3350                           
  3351                           ; 2 bytes @ 0x2
  3352  0062                     	ds	2
  3353  0064                     ??_init:	
  3354                           
  3355                           ; 1 bytes @ 0x4
  3356  0064                     	ds	2
  3357  0066                     isEndpoint@spi2data:	
  3358  0066                     readCargo@buflong:	
  3359                           ; 1 bytes @ 0x6
  3360                           
  3361                           
  3362                           ; 4 bytes @ 0x6
  3363  0066                     	ds	1
  3364  0067                     ??_Calibrate_download:	
  3365                           
  3366                           ; 1 bytes @ 0x7
  3367  0067                     	ds	1
  3368  0068                     isTrainSt@buf:	
  3369                           
  3370                           ; 1 bytes @ 0x8
  3371  0068                     	ds	1
  3372  0069                     ??_initTrain:	
  3373                           
  3374                           ; 1 bytes @ 0x9
  3375  0069                     	ds	1
  3376  006A                     readCargo@bufint:	
  3377                           
  3378                           ; 2 bytes @ 0xA
  3379  006A                     	ds	2
  3380  006C                     readCargo@spi1_Read_data:	
  3381                           
  3382                           ; 1 bytes @ 0xC
  3383  006C                     	ds	1
  3384  006D                     ??_main:	
  3385                           
  3386                           	psect	maintext
  3387  0436                     __pmaintext:	
  3388                           ; 1 bytes @ 0xD
  3389 ;;
  3390 ;;Main: autosize = 0, tempsize = 0, incstack = 0, save=0
  3391 ;;
  3392 ;; *************** function _main *****************
  3393 ;; Defined at:
  3394 ;;		line 154 in file "D:/programdata/16F18346_Link_IC.X/main.c"
  3395 ;; Parameters:    Size  Location     Type
  3396 ;;		None
  3397 ;; Auto vars:     Size  Location     Type
  3398 ;;		None
  3399 ;; Return value:  Size  Location     Type
  3400 ;;                  1    wreg      void 
  3401 ;; Registers used:
  3402 ;;		wreg, fsr0l, fsr0h, fsr1l, fsr1h, status,2, status,0, pclath, cstack
  3403 ;; Tracked objects:
  3404 ;;		On entry : B1F/0
  3405 ;;		On exit  : 0/0
  3406 ;;		Unchanged: 0/0
  3407 ;; Data sizes:     COMMON   BANK0   BANK1   BANK2   BANK3   BANK4   BANK5   BANK6   BANK7   BANK8   BANK9  BANK10  BANK1
      +1  BANK12  BANK13  BANK14  BANK15  BANK16  BANK17  BANK18  BANK19  BANK20  BANK21  BANK22  BANK23  BANK24  BANK25
  3408 ;;      Params:         0       0       0       0       0       0       0       0       0       0       0       0       
      +0       0       0       0       0       0       0       0       0       0       0       0       0       0       0
  3409 ;;      Locals:         0       0       0       0       0       0       0       0       0       0       0       0       
      +0       0       0       0       0       0       0       0       0       0       0       0       0       0       0
  3410 ;;      Temps:          0       0       0       0       0       0       0       0       0       0       0       0       
      +0       0       0       0       0       0       0       0       0       0       0       0       0       0       0
  3411 ;;      Totals:         0       0       0       0       0       0       0       0       0       0       0       0       
      +0       0       0       0       0       0       0       0       0       0       0       0       0       0       0
  3412 ;;Total ram usage:        0 bytes
  3413 ;; Hardware stack levels required when called:    7
  3414 ;; This function calls:
  3415 ;;		_InitCalibrate
  3416 ;;		_init
  3417 ;;		_initCargo
  3418 ;;		_initComand
  3419 ;;		_initComu_types
  3420 ;;		_initTrain
  3421 ;;		_io_init
  3422 ;;		_isSPI1read
  3423 ;;		_read_train
  3424 ;;		_setComunicateMode
  3425 ;;		_setSPI2sendData
  3426 ;;		_spi_init
  3427 ;; This function is called by:
  3428 ;;		Startup code after reset
  3429 ;; This function uses a non-reentrant model
  3430 ;;
  3431                           
  3432                           
  3433                           ;psect for function _main
  3434  0436                     _main:	
  3435                           
  3436                           ;main.c: 155: initComand();
  3437                           
  3438                           ;incstack = 0
  3439                           ; Regs used in _main: [wreg-fsr1h+status,2+status,0+pclath+cstack]
  3440  0436  3182  228F  3184   	fcall	_initComand
  3441                           
  3442                           ;main.c: 156: initComu_types();
  3443  0439  3182  2222  3184   	fcall	_initComu_types
  3444                           
  3445                           ;main.c: 157: InitCalibrate();
  3446  043C  3185  257A  3184   	fcall	_InitCalibrate
  3447                           
  3448                           ;main.c: 158: init();
  3449  043F  3184  2464  3184   	fcall	_init
  3450                           
  3451                           ;main.c: 159: io_init();
  3452  0442  3186  260C  3184   	fcall	_io_init
  3453                           
  3454                           ;main.c: 160: spi_init();
  3455  0445  3185  25F3  3184   	fcall	_spi_init
  3456                           
  3457                           ;main.c: 161: initCargo();
  3458  0448  3185  2561  3184   	fcall	_initCargo
  3459                           
  3460                           ;main.c: 162: LATAbits.LATA0 = 1;
  3461  044B  0022               	movlb	2	; select bank2
  3462  044C  140C               	bsf	12,0	;volatile
  3463  044D                     l2642:	
  3464                           ;main.c: 163: while(1){
  3465                           
  3466                           
  3467                           ;main.c: 164: if(!isSPI1read()){
  3468  044D  3185  25B5  3184   	fcall	_isSPI1read
  3469  0450  1803               	btfsc	3,0
  3470  0451  2C4D               	goto	l2642
  3471                           
  3472                           ;main.c: 165: initTrain();
  3473  0452  3182  22FC  3184   	fcall	_initTrain
  3474                           
  3475                           ;main.c: 166: if(isreadTrain){
  3476  0455  1E77               	btfss	_isreadTrain/(0+8),_isreadTrain& (0+7)
  3477  0456  2C5D               	goto	l2650
  3478                           
  3479                           ;main.c: 167: setComunicateMode(st_type);
  3480  0457  0020               	movlb	0	; select bank0
  3481  0458  085E               	movf	_st_type,w
  3482  0459  3183  2389  3184   	fcall	_setComunicateMode
  3483                           
  3484                           ;main.c: 168: }else{
  3485  045C  2C60               	goto	l2652
  3486  045D                     l2650:	
  3487                           
  3488                           ;main.c: 169: read_train();
  3489  045D  3183  2344  3184   	fcall	_read_train
  3490  0460                     l2652:	
  3491                           
  3492                           ;main.c: 170: }
  3493                           ;main.c: 171: setSPI2sendData();
  3494  0460  3184  24B9  3184   	fcall	_setSPI2sendData
  3495  0463  2C4D               	goto	l2642
  3496  0464                     __end_of_main:	
  3497                           ;main.c: 172: }
  3498                           ;main.c: 173: };
  3499                           ;main.c: 174: return;
  3500                           
  3501                           
  3502                           	psect	text1
  3503  05F3                     __ptext1:	
  3504 ;; *************** function _spi_init *****************
  3505 ;; Defined at:
  3506 ;;		line 22 in file "D:/programdata/16F18346_Link_IC.X/spiControl.c"
  3507 ;; Parameters:    Size  Location     Type
  3508 ;;		None
  3509 ;; Auto vars:     Size  Location     Type
  3510 ;;		None
  3511 ;; Return value:  Size  Location     Type
  3512 ;;                  1    wreg      void 
  3513 ;; Registers used:
  3514 ;;		wreg, status,2, status,0, pclath, cstack
  3515 ;; Tracked objects:
  3516 ;;		On entry : 0/0
  3517 ;;		On exit  : 0/0
  3518 ;;		Unchanged: 0/0
  3519 ;; Data sizes:     COMMON   BANK0   BANK1   BANK2   BANK3   BANK4   BANK5   BANK6   BANK7   BANK8   BANK9  BANK10  BANK1
      +1  BANK12  BANK13  BANK14  BANK15  BANK16  BANK17  BANK18  BANK19  BANK20  BANK21  BANK22  BANK23  BANK24  BANK25
  3520 ;;      Params:         0       0       0       0       0       0       0       0       0       0       0       0       
      +0       0       0       0       0       0       0       0       0       0       0       0       0       0       0
  3521 ;;      Locals:         0       0       0       0       0       0       0       0       0       0       0       0       
      +0       0       0       0       0       0       0       0       0       0       0       0       0       0       0
  3522 ;;      Temps:          0       0       0       0       0       0       0       0       0       0       0       0       
      +0       0       0       0       0       0       0       0       0       0       0       0       0       0       0
  3523 ;;      Totals:         0       0       0       0       0       0       0       0       0       0       0       0       
      +0       0       0       0       0       0       0       0       0       0       0       0       0       0       0
  3524 ;;Total ram usage:        0 bytes
  3525 ;; Hardware stack levels used:    1
  3526 ;; Hardware stack levels required when called:    4
  3527 ;; This function calls:
  3528 ;;		_spi1_init
  3529 ;;		_spi2_init
  3530 ;; This function is called by:
  3531 ;;		_main
  3532 ;; This function uses a non-reentrant model
  3533 ;;
  3534                           
  3535                           
  3536                           ;psect for function _spi_init
  3537  05F3                     _spi_init:	
  3538                           
  3539                           ;spiControl.c: 23: INTCONbits.PEIE = 0;
  3540                           
  3541                           ;incstack = 0
  3542                           ; Regs used in _spi_init: [wreg+status,2+status,0+pclath+cstack]
  3543  05F3  130B               	bcf	11,6	;volatile
  3544                           
  3545                           ;spiControl.c: 24: INTCONbits.GIE = 0;
  3546  05F4  138B               	bcf	11,7	;volatile
  3547                           
  3548                           ;spiControl.c: 25: spi1_init();
  3549  05F5  3185  2521  3185   	fcall	_spi1_init
  3550                           
  3551                           ;spiControl.c: 26: spi2_init();
  3552  05F8  3184  24DD         	fcall	_spi2_init
  3553                           
  3554                           ;spiControl.c: 27: INTCONbits.PEIE = 1;
  3555  05FA  170B               	bsf	11,6	;volatile
  3556                           
  3557                           ;spiControl.c: 28: INTCONbits.GIE = 1;
  3558  05FB  178B               	bsf	11,7	;volatile
  3559  05FC  0008               	return
  3560  05FD                     __end_of_spi_init:	
  3561                           
  3562                           	psect	text2
  3563  04DD                     __ptext2:	
  3564 ;; *************** function _spi2_init *****************
  3565 ;; Defined at:
  3566 ;;		line 49 in file "D:/programdata/16F18346_Link_IC.X/spiControl.c"
  3567 ;; Parameters:    Size  Location     Type
  3568 ;;		None
  3569 ;; Auto vars:     Size  Location     Type
  3570 ;;  dummy           1    1[BANK0 ] unsigned char 
  3571 ;; Return value:  Size  Location     Type
  3572 ;;                  1    wreg      void 
  3573 ;; Registers used:
  3574 ;;		wreg, status,2, status,0
  3575 ;; Tracked objects:
  3576 ;;		On entry : 0/0
  3577 ;;		On exit  : 0/0
  3578 ;;		Unchanged: 0/0
  3579 ;; Data sizes:     COMMON   BANK0   BANK1   BANK2   BANK3   BANK4   BANK5   BANK6   BANK7   BANK8   BANK9  BANK10  BANK1
      +1  BANK12  BANK13  BANK14  BANK15  BANK16  BANK17  BANK18  BANK19  BANK20  BANK21  BANK22  BANK23  BANK24  BANK25
  3580 ;;      Params:         0       0       0       0       0       0       0       0       0       0       0       0       
      +0       0       0       0       0       0       0       0       0       0       0       0       0       0       0
  3581 ;;      Locals:         0       1       0       0       0       0       0       0       0       0       0       0       
      +0       0       0       0       0       0       0       0       0       0       0       0       0       0       0
  3582 ;;      Temps:          0       1       0       0       0       0       0       0       0       0       0       0       
      +0       0       0       0       0       0       0       0       0       0       0       0       0       0       0
  3583 ;;      Totals:         0       2       0       0       0       0       0       0       0       0       0       0       
      +0       0       0       0       0       0       0       0       0       0       0       0       0       0       0
  3584 ;;Total ram usage:        2 bytes
  3585 ;; Hardware stack levels used:    1
  3586 ;; Hardware stack levels required when called:    3
  3587 ;; This function calls:
  3588 ;;		Nothing
  3589 ;; This function is called by:
  3590 ;;		_spi_init
  3591 ;; This function uses a non-reentrant model
  3592 ;;
  3593                           
  3594                           
  3595                           ;psect for function _spi2_init
  3596  04DD                     _spi2_init:	
  3597                           
  3598                           ;spiControl.c: 50: unsigned char dummy;
  3599                           ;spiControl.c: 51: SSP2CON3bits.PCIE = 0;
  3600                           
  3601                           ;incstack = 0
  3602                           ; Regs used in _spi2_init: [wreg+status,2+status,0]
  3603  04DD  0024               	movlb	4	; select bank4
  3604  04DE  131F               	bcf	31,6	;volatile
  3605                           
  3606                           ;spiControl.c: 52: RA2PPS = 0b11011;
  3607  04DF  301B               	movlw	27
  3608  04E0  003D               	movlb	29	; select bank29
  3609  04E1  0092               	movwf	18	;volatile
  3610                           
  3611                           ;spiControl.c: 53: RB7PPS = 0b11010;
  3612  04E2  301A               	movlw	26
  3613  04E3  009F               	movwf	31	;volatile
  3614                           
  3615                           ;spiControl.c: 54: SSP2SSPPSbits.SSP2SSPPS = 0b01111;
  3616  04E4  003C               	movlb	28	; select bank28
  3617  04E5  081F               	movf	31,w	;volatile
  3618  04E6  39E0               	andlw	-32
  3619  04E7  380F               	iorlw	15
  3620  04E8  009F               	movwf	31	;volatile
  3621                           
  3622                           ;spiControl.c: 55: SSP2CON1bits.SSPOV = 1;
  3623  04E9  0024               	movlb	4	; select bank4
  3624  04EA  171D               	bsf	29,6	;volatile
  3625                           
  3626                           ;spiControl.c: 56: SSP2CON1bits.SSPEN = 1;
  3627  04EB  169D               	bsf	29,5	;volatile
  3628                           
  3629                           ;spiControl.c: 57: SSP2CON1bits.SSPM = 0b0001;
  3630  04EC  081D               	movf	29,w	;volatile
  3631  04ED  39F0               	andlw	-16
  3632  04EE  3801               	iorlw	1
  3633  04EF  009D               	movwf	29	;volatile
  3634                           
  3635                           ;spiControl.c: 58: SSP2CON3bits.BOEN = 1;
  3636  04F0  161F               	bsf	31,4	;volatile
  3637                           
  3638                           ;spiControl.c: 59: SSP2STATbits.SMP = 0;
  3639  04F1  139C               	bcf	28,7	;volatile
  3640                           
  3641                           ;spiControl.c: 60: SSP2STATbits.CKE = 0;
  3642  04F2  131C               	bcf	28,6	;volatile
  3643                           
  3644                           ;spiControl.c: 61: SSP2CON1bits.CKP = 0;
  3645  04F3  121D               	bcf	29,4	;volatile
  3646                           
  3647                           ;spiControl.c: 62: PIE2bits.SSP2IE = 1;
  3648  04F4  0021               	movlb	1	; select bank1
  3649  04F5  1592               	bsf	18,3	;volatile
  3650                           
  3651                           ;spiControl.c: 63: PIR2bits.SSP2IF = 0;
  3652  04F6  0020               	movlb	0	; select bank0
  3653  04F7  1192               	bcf	18,3	;volatile
  3654                           
  3655                           ;spiControl.c: 64: dummy = SSP2BUF;
  3656  04F8  0024               	movlb	4	; select bank4
  3657  04F9  0819               	movf	25,w	;volatile
  3658  04FA  0020               	movlb	0	; select bank0
  3659  04FB  00E0               	movwf	??_spi2_init
  3660  04FC  0860               	movf	??_spi2_init,w
  3661  04FD  00E1               	movwf	spi2_init@dummy
  3662  04FE  0008               	return
  3663  04FF                     __end_of_spi2_init:	
  3664                           
  3665                           	psect	text3
  3666  0521                     __ptext3:	
  3667 ;; *************** function _spi1_init *****************
  3668 ;; Defined at:
  3669 ;;		line 33 in file "D:/programdata/16F18346_Link_IC.X/spiControl.c"
  3670 ;; Parameters:    Size  Location     Type
  3671 ;;		None
  3672 ;; Auto vars:     Size  Location     Type
  3673 ;;  dummy           1    1[BANK0 ] unsigned char 
  3674 ;; Return value:  Size  Location     Type
  3675 ;;                  1    wreg      void 
  3676 ;; Registers used:
  3677 ;;		wreg, status,2, status,0
  3678 ;; Tracked objects:
  3679 ;;		On entry : 0/0
  3680 ;;		On exit  : 0/0
  3681 ;;		Unchanged: 0/0
  3682 ;; Data sizes:     COMMON   BANK0   BANK1   BANK2   BANK3   BANK4   BANK5   BANK6   BANK7   BANK8   BANK9  BANK10  BANK1
      +1  BANK12  BANK13  BANK14  BANK15  BANK16  BANK17  BANK18  BANK19  BANK20  BANK21  BANK22  BANK23  BANK24  BANK25
  3683 ;;      Params:         0       0       0       0       0       0       0       0       0       0       0       0       
      +0       0       0       0       0       0       0       0       0       0       0       0       0       0       0
  3684 ;;      Locals:         0       1       0       0       0       0       0       0       0       0       0       0       
      +0       0       0       0       0       0       0       0       0       0       0       0       0       0       0
  3685 ;;      Temps:          0       1       0       0       0       0       0       0       0       0       0       0       
      +0       0       0       0       0       0       0       0       0       0       0       0       0       0       0
  3686 ;;      Totals:         0       2       0       0       0       0       0       0       0       0       0       0       
      +0       0       0       0       0       0       0       0       0       0       0       0       0       0       0
  3687 ;;Total ram usage:        2 bytes
  3688 ;; Hardware stack levels used:    1
  3689 ;; Hardware stack levels required when called:    3
  3690 ;; This function calls:
  3691 ;;		Nothing
  3692 ;; This function is called by:
  3693 ;;		_spi_init
  3694 ;; This function uses a non-reentrant model
  3695 ;;
  3696                           
  3697                           
  3698                           ;psect for function _spi1_init
  3699  0521                     _spi1_init:	
  3700                           
  3701                           ;spiControl.c: 34: unsigned char dummy;
  3702                           ;spiControl.c: 35: SSP1CON3bits.PCIE = 0;
  3703                           
  3704                           ;incstack = 0
  3705                           ; Regs used in _spi1_init: [wreg+status,2+status,0]
  3706  0521  0024               	movlb	4	; select bank4
  3707  0522  1317               	bcf	23,6	;volatile
  3708                           
  3709                           ;spiControl.c: 36: RC2PPS = 0b11001;
  3710  0523  3019               	movlw	25
  3711  0524  003D               	movlb	29	; select bank29
  3712  0525  00A2               	movwf	34	;volatile
  3713                           
  3714                           ;spiControl.c: 37: SSP1SSPPSbits.SSP1SSPPS = 0b10110;
  3715  0526  003C               	movlb	28	; select bank28
  3716  0527  0822               	movf	34,w	;volatile
  3717  0528  39E0               	andlw	-32
  3718  0529  3816               	iorlw	22
  3719  052A  00A2               	movwf	34	;volatile
  3720                           
  3721                           ;spiControl.c: 38: SSP1CON1bits.SSPOV = 1;
  3722  052B  0024               	movlb	4	; select bank4
  3723  052C  1715               	bsf	21,6	;volatile
  3724                           
  3725                           ;spiControl.c: 39: SSP1CON1bits.SSPEN = 1;
  3726  052D  1695               	bsf	21,5	;volatile
  3727                           
  3728                           ;spiControl.c: 40: SSP1CON1bits.SSPM = 0b0100;
  3729  052E  0815               	movf	21,w	;volatile
  3730  052F  39F0               	andlw	-16
  3731  0530  3804               	iorlw	4
  3732  0531  0095               	movwf	21	;volatile
  3733                           
  3734                           ;spiControl.c: 41: SSP1CON3bits.BOEN = 1;
  3735  0532  1617               	bsf	23,4	;volatile
  3736                           
  3737                           ;spiControl.c: 42: SSP1STATbits.SMP = 0;
  3738  0533  1394               	bcf	20,7	;volatile
  3739                           
  3740                           ;spiControl.c: 43: SSP1STATbits.CKE = 0;
  3741  0534  1314               	bcf	20,6	;volatile
  3742                           
  3743                           ;spiControl.c: 44: SSP1CON1bits.CKP = 0;
  3744  0535  1215               	bcf	21,4	;volatile
  3745                           
  3746                           ;spiControl.c: 45: PIE1bits.SSP1IE = 1;
  3747  0536  0021               	movlb	1	; select bank1
  3748  0537  1591               	bsf	17,3	;volatile
  3749                           
  3750                           ;spiControl.c: 46: PIR1bits.SSP1IF = 0;
  3751  0538  0020               	movlb	0	; select bank0
  3752  0539  1191               	bcf	17,3	;volatile
  3753                           
  3754                           ;spiControl.c: 47: dummy = SSP1BUF;
  3755  053A  0024               	movlb	4	; select bank4
  3756  053B  0811               	movf	17,w	;volatile
  3757  053C  0020               	movlb	0	; select bank0
  3758  053D  00E0               	movwf	??_spi1_init
  3759  053E  0860               	movf	??_spi1_init,w
  3760  053F  00E1               	movwf	spi1_init@dummy
  3761  0540  0008               	return
  3762  0541                     __end_of_spi1_init:	
  3763                           
  3764                           	psect	text4
  3765  04B9                     __ptext4:	
  3766 ;; *************** function _setSPI2sendData *****************
  3767 ;; Defined at:
  3768 ;;		line 106 in file "D:/programdata/16F18346_Link_IC.X/spiControl.c"
  3769 ;; Parameters:    Size  Location     Type
  3770 ;;		None
  3771 ;; Auto vars:     Size  Location     Type
  3772 ;;		None
  3773 ;; Return value:  Size  Location     Type
  3774 ;;                  1    wreg      void 
  3775 ;; Registers used:
  3776 ;;		wreg, fsr1l, fsr1h, status,2, status,0
  3777 ;; Tracked objects:
  3778 ;;		On entry : 0/0
  3779 ;;		On exit  : 0/0
  3780 ;;		Unchanged: 0/0
  3781 ;; Data sizes:     COMMON   BANK0   BANK1   BANK2   BANK3   BANK4   BANK5   BANK6   BANK7   BANK8   BANK9  BANK10  BANK1
      +1  BANK12  BANK13  BANK14  BANK15  BANK16  BANK17  BANK18  BANK19  BANK20  BANK21  BANK22  BANK23  BANK24  BANK25
  3782 ;;      Params:         0       0       0       0       0       0       0       0       0       0       0       0       
      +0       0       0       0       0       0       0       0       0       0       0       0       0       0       0
  3783 ;;      Locals:         0       0       0       0       0       0       0       0       0       0       0       0       
      +0       0       0       0       0       0       0       0       0       0       0       0       0       0       0
  3784 ;;      Temps:          0       4       0       0       0       0       0       0       0       0       0       0       
      +0       0       0       0       0       0       0       0       0       0       0       0       0       0       0
  3785 ;;      Totals:         0       4       0       0       0       0       0       0       0       0       0       0       
      +0       0       0       0       0       0       0       0       0       0       0       0       0       0       0
  3786 ;;Total ram usage:        4 bytes
  3787 ;; Hardware stack levels used:    1
  3788 ;; Hardware stack levels required when called:    3
  3789 ;; This function calls:
  3790 ;;		Nothing
  3791 ;; This function is called by:
  3792 ;;		_main
  3793 ;; This function uses a non-reentrant model
  3794 ;;
  3795                           
  3796                           
  3797                           ;psect for function _setSPI2sendData
  3798  04B9                     _setSPI2sendData:	
  3799                           
  3800                           ;spiControl.c: 107: if(linkInfo.endpoint == 0){
  3801                           
  3802                           ;incstack = 0
  3803                           ; Regs used in _setSPI2sendData: [wreg+fsr1l+fsr1h+status,2+status,0]
  3804  04B9  0020               	movlb	0	; select bank0
  3805  04BA  083E               	movf	_linkInfo+5,w
  3806  04BB  1D03               	btfss	3,2
  3807  04BC  2CC1               	goto	l2622
  3808                           
  3809                           ;spiControl.c: 108: SSP2BUF = spi2_Send_data;
  3810  04BD  085F               	movf	_spi2_Send_data,w
  3811  04BE  0024               	movlb	4	; select bank4
  3812  04BF  0099               	movwf	25	;volatile
  3813                           
  3814                           ;spiControl.c: 109: }else{
  3815  04C0  0008               	return
  3816  04C1                     l2622:	
  3817                           
  3818                           ;spiControl.c: 110: spi2_buffer_data[count2] = spi2_Send_data;
  3819  04C1  30F0               	movlw	240
  3820  04C2  0020               	movlb	0	; select bank0
  3821  04C3  00E0               	movwf	??_setSPI2sendData
  3822  04C4  3025               	movlw	37
  3823  04C5  00E1               	movwf	??_setSPI2sendData+1
  3824  04C6  0855               	movf	_count2,w
  3825  04C7  0760               	addwf	??_setSPI2sendData,w
  3826  04C8  00E2               	movwf	??_setSPI2sendData+2
  3827  04C9  0856               	movf	_count2+1,w
  3828  04CA  3D61               	addwfc	??_setSPI2sendData+1,w
  3829  04CB  00E3               	movwf	??_setSPI2sendData+3
  3830  04CC  0862               	movf	??_setSPI2sendData+2,w
  3831  04CD  0086               	movwf	6
  3832  04CE  0863               	movf	??_setSPI2sendData+3,w
  3833  04CF  0087               	movwf	7
  3834  04D0  085F               	movf	_spi2_Send_data,w
  3835  04D1  0081               	movwf	1
  3836                           
  3837                           ;spiControl.c: 111: count2++;
  3838  04D2  3001               	movlw	1
  3839  04D3  07D5               	addwf	_count2,f
  3840  04D4  3000               	movlw	0
  3841  04D5  3DD6               	addwfc	_count2+1,f
  3842                           
  3843                           ;spiControl.c: 112: if(count2 == 256){
  3844  04D6  0356               	decf	_count2+1,w
  3845  04D7  0455               	iorwf	_count2,w
  3846  04D8  1D03               	btfss	3,2
  3847  04D9  0008               	return
  3848                           
  3849                           ;spiControl.c: 113: count2 = 0;
  3850  04DA  01D5               	clrf	_count2
  3851  04DB  01D6               	clrf	_count2+1
  3852  04DC  0008               	return
  3853  04DD                     __end_of_setSPI2sendData:	
  3854                           
  3855                           	psect	text5
  3856  0389                     __ptext5:	
  3857 ;; *************** function _setComunicateMode *****************
  3858 ;; Defined at:
  3859 ;;		line 38 in file "D:/programdata/16F18346_Link_IC.X/comu_type.c"
  3860 ;; Parameters:    Size  Location     Type
  3861 ;;  m_type          1    wreg     unsigned char 
  3862 ;; Auto vars:     Size  Location     Type
  3863 ;;  m_type          1    9[BANK1 ] unsigned char 
  3864 ;;  i               2   10[BANK1 ] int 
  3865 ;; Return value:  Size  Location     Type
  3866 ;;		None               void
  3867 ;; Registers used:
  3868 ;;		wreg, fsr0l, fsr0h, fsr1l, fsr1h, status,2, status,0, pclath, cstack
  3869 ;; Tracked objects:
  3870 ;;		On entry : 0/0
  3871 ;;		On exit  : 0/0
  3872 ;;		Unchanged: 0/0
  3873 ;; Data sizes:     COMMON   BANK0   BANK1   BANK2   BANK3   BANK4   BANK5   BANK6   BANK7   BANK8   BANK9  BANK10  BANK1
      +1  BANK12  BANK13  BANK14  BANK15  BANK16  BANK17  BANK18  BANK19  BANK20  BANK21  BANK22  BANK23  BANK24  BANK25
  3874 ;;      Params:         0       0       0       0       0       0       0       0       0       0       0       0       
      +0       0       0       0       0       0       0       0       0       0       0       0       0       0       0
  3875 ;;      Locals:         0       0       3       0       0       0       0       0       0       0       0       0       
      +0       0       0       0       0       0       0       0       0       0       0       0       0       0       0
  3876 ;;      Temps:          0       0       1       0       0       0       0       0       0       0       0       0       
      +0       0       0       0       0       0       0       0       0       0       0       0       0       0       0
  3877 ;;      Totals:         0       0       4       0       0       0       0       0       0       0       0       0       
      +0       0       0       0       0       0       0       0       0       0       0       0       0       0       0
  3878 ;;Total ram usage:        4 bytes
  3879 ;; Hardware stack levels used:    1
  3880 ;; Hardware stack levels required when called:    6
  3881 ;; This function calls:
  3882 ;;		_Calibrate_download
  3883 ;;		_readCargo
  3884 ;; This function is called by:
  3885 ;;		_main
  3886 ;; This function uses a non-reentrant model
  3887 ;;
  3888                           
  3889                           
  3890                           ;psect for function _setComunicateMode
  3891  0389                     _setComunicateMode:	
  3892                           
  3893                           ;incstack = 0
  3894                           ; Regs used in _setComunicateMode: [wreg-fsr1h+status,2+status,0+pclath+cstack]
  3895                           ;setComunicateMode@m_type stored from wreg
  3896  0389  0021               	movlb	1	; select bank1
  3897  038A  00D1               	movwf	setComunicateMode@m_type^(0+128)
  3898                           
  3899                           ;comu_type.c: 39: for(int i = 0; i < 18; i++){
  3900  038B  01D2               	clrf	setComunicateMode@i^(0+128)
  3901  038C  01D3               	clrf	(setComunicateMode@i+1)^(0+128)
  3902  038D                     L1:	
  3903  038D  0853               	movf	(setComunicateMode@i+1)^(0+128),w
  3904  038E  3A80               	xorlw	128
  3905  038F  00D0               	movwf	??_setComunicateMode^(0+128)
  3906  0390  3080               	movlw	128
  3907  0391  0250               	subwf	??_setComunicateMode^(0+128),w
  3908  0392  1D03               	skipz
  3909  0393  2B96               	goto	u1015
  3910  0394  3012               	movlw	18
  3911  0395  0252               	subwf	setComunicateMode@i^(0+128),w
  3912  0396                     u1015:	
  3913  0396  1803               	btfsc	3,0
  3914  0397  0008               	return
  3915                           
  3916                           ;comu_type.c: 40: if(comu_types[i] == m_type){
  3917  0398  0021               	movlb	1	; select bank1
  3918  0399  0852               	movf	setComunicateMode@i^(0+128),w
  3919  039A  3EA0               	addlw	(low (_comu_types| 0))& (0+255)
  3920  039B  0086               	movwf	6
  3921  039C  0187               	clrf	7
  3922  039D  0801               	movf	1,w
  3923  039E  0651               	xorwf	setComunicateMode@m_type^(0+128),w
  3924  039F  1903               	btfsc	3,2
  3925  03A0  2BAC               	goto	l2584
  3926  03A1  2BC0               	goto	l2586
  3927  03A2                     l2574:	
  3928                           ;comu_type.c: 42: case 0:
  3929                           
  3930                           ;comu_type.c: 41: switch(i){
  3931                           
  3932                           
  3933                           ;comu_type.c: 43: Calibrate_download(spi1_Read_data);
  3934  03A2  0020               	movlb	0	; select bank0
  3935  03A3  085C               	movf	_spi1_Read_data,w
  3936  03A4  3180  2081         	fcall	_Calibrate_download
  3937                           
  3938                           ;comu_type.c: 44: return 1;
  3939                           ;	Return value of _setComunicateMode is never used
  3940  03A6  0008               	return
  3941  03A7                     l2578:	
  3942                           ;comu_type.c: 45: case 1:
  3943                           
  3944                           
  3945                           ;comu_type.c: 46: readCargo(spi1_Read_data);
  3946  03A7  0020               	movlb	0	; select bank0
  3947  03A8  085C               	movf	_spi1_Read_data,w
  3948  03A9  3181  2156         	fcall	_readCargo
  3949                           
  3950                           ;comu_type.c: 51: return 1;
  3951                           ;	Return value of _setComunicateMode is never used
  3952                           
  3953                           ;comu_type.c: 50: case 3:
  3954                           
  3955                           ;comu_type.c: 49: return 1;
  3956                           ;	Return value of _setComunicateMode is never used
  3957                           
  3958                           ;comu_type.c: 48: case 2:
  3959                           
  3960                           ;comu_type.c: 47: return 1;
  3961                           ;	Return value of _setComunicateMode is never used
  3962  03AB  0008               	return
  3963  03AC                     l2584:	
  3964                           ;comu_type.c: 52: }
  3965                           
  3966                           
  3967                           ; Switch on 2 bytes has been partitioned into a top level switch of size 1, and 1 sub-sw
      +                          itches
  3968                           ; Switch size 1, requested type "space"
  3969                           ; Number of cases is 1, Range of values is 0 to 0
  3970                           ; switch strategies available:
  3971                           ; Name         Instructions Cycles
  3972                           ; simple_byte            4     3 (average)
  3973                           ; direct_byte            8     6 (fixed)
  3974                           ; jumptable            260     6 (fixed)
  3975                           ;	Chosen strategy is simple_byte
  3976  03AC  0021               	movlb	1	; select bank1
  3977  03AD  0853               	movf	(setComunicateMode@i+1)^(0+128),w
  3978  03AE  3A00               	xorlw	0	; case 0
  3979  03AF  1903               	skipnz
  3980  03B0  2BB2               	goto	l2774
  3981  03B1  2BC0               	goto	l2586
  3982  03B2                     l2774:	
  3983                           
  3984                           ; Switch size 1, requested type "space"
  3985                           ; Number of cases is 4, Range of values is 0 to 3
  3986                           ; switch strategies available:
  3987                           ; Name         Instructions Cycles
  3988                           ; simple_byte           13     7 (average)
  3989                           ; direct_byte           14     6 (fixed)
  3990                           ; jumptable            260     6 (fixed)
  3991                           ;	Chosen strategy is simple_byte
  3992  03B2  0852               	movf	setComunicateMode@i^(0+128),w
  3993  03B3  3A00               	xorlw	0	; case 0
  3994  03B4  1903               	skipnz
  3995  03B5  2BA2               	goto	l2574
  3996  03B6  3A01               	xorlw	1	; case 1
  3997  03B7  1903               	skipnz
  3998  03B8  2BA7               	goto	l2578
  3999  03B9  3A03               	xorlw	3	; case 2
  4000  03BA  1903               	skipnz
  4001  03BB  2BC6               	goto	l422
  4002  03BC  3A01               	xorlw	1	; case 3
  4003  03BD  1903               	skipnz
  4004  03BE  2BC6               	goto	l422
  4005  03BF  2BC0               	goto	l2586
  4006  03C0                     l2586:	
  4007  03C0  3001               	movlw	1
  4008  03C1  0021               	movlb	1	; select bank1
  4009  03C2  07D2               	addwf	setComunicateMode@i^(0+128),f
  4010  03C3  3000               	movlw	0
  4011  03C4  3DD3               	addwfc	(setComunicateMode@i+1)^(0+128),f
  4012  03C5  2B8D               	goto	L1
  4013  03C6                     l422:	
  4014                           ;comu_type.c: 53: }
  4015                           ;comu_type.c: 54: }
  4016                           ;comu_type.c: 55: return 0;
  4017                           ;	Return value of _setComunicateMode is never used
  4018                           
  4019  03C6  0008               	return
  4020  03C7                     __end_of_setComunicateMode:	
  4021                           
  4022                           	psect	text6
  4023  0156                     __ptext6:	
  4024 ;; *************** function _readCargo *****************
  4025 ;; Defined at:
  4026 ;;		line 46 in file "D:/programdata/16F18346_Link_IC.X/normal_mode.c"
  4027 ;; Parameters:    Size  Location     Type
  4028 ;;  spi1_Read_da    1    wreg     unsigned char 
  4029 ;; Auto vars:     Size  Location     Type
  4030 ;;  spi1_Read_da    1   12[BANK0 ] unsigned char 
  4031 ;;  buflong         4    6[BANK0 ] unsigned long 
  4032 ;;  bufint          2   10[BANK0 ] unsigned int 
  4033 ;; Return value:  Size  Location     Type
  4034 ;;                  1    wreg      void 
  4035 ;; Registers used:
  4036 ;;		wreg, fsr0l, fsr0h, status,2, status,0, pclath, cstack
  4037 ;; Tracked objects:
  4038 ;;		On entry : 0/0
  4039 ;;		On exit  : 0/0
  4040 ;;		Unchanged: 0/0
  4041 ;; Data sizes:     COMMON   BANK0   BANK1   BANK2   BANK3   BANK4   BANK5   BANK6   BANK7   BANK8   BANK9  BANK10  BANK1
      +1  BANK12  BANK13  BANK14  BANK15  BANK16  BANK17  BANK18  BANK19  BANK20  BANK21  BANK22  BANK23  BANK24  BANK25
  4042 ;;      Params:         0       0       0       0       0       0       0       0       0       0       0       0       
      +0       0       0       0       0       0       0       0       0       0       0       0       0       0       0
  4043 ;;      Locals:         0       7       0       0       0       0       0       0       0       0       0       0       
      +0       0       0       0       0       0       0       0       0       0       0       0       0       0       0
  4044 ;;      Temps:          0       5       0       0       0       0       0       0       0       0       0       0       
      +0       0       0       0       0       0       0       0       0       0       0       0       0       0       0
  4045 ;;      Totals:         0      12       0       0       0       0       0       0       0       0       0       0       
      +0       0       0       0       0       0       0       0       0       0       0       0       0       0       0
  4046 ;;Total ram usage:       12 bytes
  4047 ;; Hardware stack levels used:    1
  4048 ;; Hardware stack levels required when called:    4
  4049 ;; This function calls:
  4050 ;;		_clutchaction
  4051 ;;		_restartCargo
  4052 ;; This function is called by:
  4053 ;;		_setComunicateMode
  4054 ;; This function uses a non-reentrant model
  4055 ;;
  4056                           
  4057                           
  4058                           ;psect for function _readCargo
  4059  0156                     _readCargo:	
  4060                           
  4061                           ;incstack = 0
  4062                           ; Regs used in _readCargo: [wreg-fsr0h+status,2+status,0+pclath+cstack]
  4063                           ;readCargo@spi1_Read_data stored from wreg
  4064  0156  0020               	movlb	0	; select bank0
  4065  0157  00EC               	movwf	readCargo@spi1_Read_data
  4066                           
  4067                           ;normal_mode.c: 47: unsigned int bufint = spi1_Read_data;
  4068  0158  086C               	movf	readCargo@spi1_Read_data,w
  4069  0159  00E1               	movwf	??_readCargo
  4070  015A  01E2               	clrf	??_readCargo+1
  4071  015B  0861               	movf	??_readCargo,w
  4072  015C  00EA               	movwf	readCargo@bufint
  4073  015D  0862               	movf	??_readCargo+1,w
  4074  015E  00EB               	movwf	readCargo@bufint+1
  4075                           
  4076                           ;normal_mode.c: 48: unsigned long buflong = spi1_Read_data;
  4077  015F  086C               	movf	readCargo@spi1_Read_data,w
  4078  0160  00E1               	movwf	??_readCargo
  4079  0161  01E2               	clrf	??_readCargo+1
  4080  0162  01E3               	clrf	??_readCargo+2
  4081  0163  01E4               	clrf	??_readCargo+3
  4082  0164  0864               	movf	??_readCargo+3,w
  4083  0165  00E9               	movwf	readCargo@buflong+3
  4084  0166  0863               	movf	??_readCargo+2,w
  4085  0167  00E8               	movwf	readCargo@buflong+2
  4086  0168  0862               	movf	??_readCargo+1,w
  4087  0169  00E7               	movwf	readCargo@buflong+1
  4088  016A  0861               	movf	??_readCargo,w
  4089  016B  00E6               	movwf	readCargo@buflong
  4090                           
  4091                           ;normal_mode.c: 50: if(isMycargo){
  4092  016C  18ED               	btfsc	_isMycargo/(0+8),_isMycargo& (0+7)
  4093  016D  29F2               	goto	l2436
  4094  016E  2A01               	goto	l2438
  4095  016F                     l464:	
  4096                           ;normal_mode.c: 52: case 0:
  4097                           
  4098                           ;normal_mode.c: 51: switch(countabuf){
  4099                           
  4100                           
  4101                           ;normal_mode.c: 53: LATAbits.LATA0 = 1;
  4102  016F  0022               	movlb	2	; select bank2
  4103  0170  140C               	bsf	12,0	;volatile
  4104                           
  4105                           ;normal_mode.c: 54: cargoLengthnuf = (bufint << 8);
  4106  0171  0020               	movlb	0	; select bank0
  4107  0172  086A               	movf	readCargo@bufint,w
  4108  0173  00E2               	movwf	??_readCargo+1
  4109  0174  01E1               	clrf	??_readCargo
  4110  0175  0861               	movf	??_readCargo,w
  4111  0176  00C5               	movwf	_cargoLengthnuf
  4112  0177  0862               	movf	??_readCargo+1,w
  4113  0178  00C6               	movwf	_cargoLengthnuf+1
  4114                           
  4115                           ;normal_mode.c: 55: break;
  4116  0179  2A01               	goto	l2438
  4117  017A                     l466:	
  4118                           ;normal_mode.c: 56: case 1:
  4119                           
  4120                           
  4121                           ;normal_mode.c: 57: LATAbits.LATA0 = 0;
  4122  017A  0022               	movlb	2	; select bank2
  4123  017B  100C               	bcf	12,0	;volatile
  4124                           
  4125                           ;normal_mode.c: 58: cargoData.cargoLength = (cargoLengthnuf | bufint);
  4126  017C  0020               	movlb	0	; select bank0
  4127  017D  086A               	movf	readCargo@bufint,w
  4128  017E  0445               	iorwf	_cargoLengthnuf,w
  4129  017F  00A0               	movwf	_cargoData
  4130  0180  086B               	movf	readCargo@bufint+1,w
  4131  0181  0446               	iorwf	_cargoLengthnuf+1,w
  4132  0182  00A1               	movwf	_cargoData+1
  4133                           
  4134                           ;normal_mode.c: 59: break;
  4135  0183  2A01               	goto	l2438
  4136  0184                     l2398:	
  4137                           ;normal_mode.c: 60: case 2:
  4138                           
  4139                           
  4140                           ;normal_mode.c: 61: cargoData.command = spi1_Read_data;
  4141  0184  086C               	movf	readCargo@spi1_Read_data,w
  4142  0185  00E1               	movwf	??_readCargo
  4143  0186  0861               	movf	??_readCargo,w
  4144  0187  00A2               	movwf	_cargoData+2
  4145                           
  4146                           ;normal_mode.c: 62: break;
  4147  0188  2A01               	goto	l2438
  4148  0189                     l2400:	
  4149                           ;normal_mode.c: 63: case 3:
  4150                           
  4151                           
  4152                           ;normal_mode.c: 64: cargoData.index = spi1_Read_data;
  4153  0189  086C               	movf	readCargo@spi1_Read_data,w
  4154  018A  00E1               	movwf	??_readCargo
  4155  018B  0861               	movf	??_readCargo,w
  4156  018C  00A3               	movwf	_cargoData+3
  4157                           
  4158                           ;normal_mode.c: 65: break;
  4159  018D  2A01               	goto	l2438
  4160  018E                     l2402:	
  4161                           ;normal_mode.c: 66: case 4:
  4162                           
  4163                           
  4164                           ;normal_mode.c: 67: cargoData.address = spi1_Read_data;
  4165  018E  086C               	movf	readCargo@spi1_Read_data,w
  4166  018F  00E1               	movwf	??_readCargo
  4167  0190  0861               	movf	??_readCargo,w
  4168  0191  00A4               	movwf	_cargoData+4
  4169                           
  4170                           ;normal_mode.c: 68: if(cargoData.address != linkInfo.My_address){
  4171  0192  0824               	movf	_cargoData+4,w
  4172  0193  0639               	xorwf	_linkInfo,w
  4173  0194  1903               	skipnz
  4174  0195  2A01               	goto	l2438
  4175                           
  4176                           ;normal_mode.c: 69: restartCargo();
  4177  0196  3185  25A4  3181   	fcall	_restartCargo
  4178                           
  4179                           ;normal_mode.c: 70: isMycargo = 0;
  4180  0199  0020               	movlb	0	; select bank0
  4181  019A  10ED               	bcf	_isMycargo/(0+8),_isMycargo& (0+7)
  4182                           
  4183                           ;normal_mode.c: 72: }
  4184                           ;normal_mode.c: 73: break;
  4185                           
  4186                           ;normal_mode.c: 71: }else{
  4187  019B  2A01               	goto	l2438
  4188  019C                     l2408:	
  4189                           ;normal_mode.c: 74: case 5:
  4190                           
  4191                           
  4192                           ;normal_mode.c: 75: spi2_Send_data = (cargoData.linkAngleTo >> 8 & 0x00ff);
  4193  019C  0826               	movf	_cargoData+6,w
  4194  019D  29EE               	goto	L11
  4195  019E                     l2410:	
  4196                           ;normal_mode.c: 77: case 6:
  4197                           
  4198                           ;normal_mode.c: 76: break;
  4199                           
  4200                           
  4201                           ;normal_mode.c: 78: spi2_Send_data = (cargoData.linkAngleTo & 0x00ff);
  4202  019E  0825               	movf	_cargoData+5,w
  4203  019F  29EE               	goto	L11
  4204  01A0                     l2412:	
  4205                           ;normal_mode.c: 80: case 7:
  4206                           
  4207                           ;normal_mode.c: 79: break;
  4208                           
  4209                           
  4210                           ;normal_mode.c: 81: spi2_Send_data = (cargoData.linkAngleBack >> 8 & 0x00ff);
  4211  01A0  0828               	movf	_cargoData+8,w
  4212  01A1  29EE               	goto	L11
  4213  01A2                     l2414:	
  4214                           ;normal_mode.c: 83: case 8:
  4215                           
  4216                           ;normal_mode.c: 82: break;
  4217                           
  4218                           
  4219                           ;normal_mode.c: 84: spi2_Send_data = (cargoData.linkAngleBack & 0x00ff);
  4220  01A2  0827               	movf	_cargoData+7,w
  4221  01A3  29EE               	goto	L11
  4222  01A4                     l2416:	
  4223                           ;normal_mode.c: 86: case 9:
  4224                           
  4225                           ;normal_mode.c: 85: break;
  4226                           
  4227                           
  4228                           ;normal_mode.c: 87: spi2_Send_data = (cargoData.passedTime >> 8 & 0x00ff);
  4229  01A4  082A               	movf	_cargoData+10,w
  4230  01A5  29EE               	goto	L11
  4231  01A6                     l2418:	
  4232                           ;normal_mode.c: 89: case 10:
  4233                           
  4234                           ;normal_mode.c: 88: break;
  4235                           
  4236                           
  4237                           ;normal_mode.c: 90: spi2_Send_data = (cargoData.passedTime & 0x00ff);
  4238  01A6  0829               	movf	_cargoData+9,w
  4239  01A7  29EE               	goto	L11
  4240  01A8                     l2420:	
  4241                           ;normal_mode.c: 92: case 11:
  4242                           
  4243                           ;normal_mode.c: 91: break;
  4244                           
  4245                           
  4246                           ;normal_mode.c: 93: cargoData.clutchMode = spi1_Read_data;
  4247  01A8  086C               	movf	readCargo@spi1_Read_data,w
  4248  01A9  00E1               	movwf	??_readCargo
  4249  01AA  0861               	movf	??_readCargo,w
  4250  01AB  00AB               	movwf	_cargoData+11
  4251                           
  4252                           ;normal_mode.c: 94: clutchaction(cargoData.clutchMode);
  4253  01AC  082B               	movf	_cargoData+11,w
  4254  01AD  3185  25E8  3181   	fcall	_clutchaction
  4255                           
  4256                           ;normal_mode.c: 95: break;
  4257  01B0  2A01               	goto	l2438
  4258  01B1                     l2424:	
  4259                           ;normal_mode.c: 96: case 12:
  4260                           
  4261                           
  4262                           ;normal_mode.c: 97: cargoData.WorkingCount++;
  4263  01B1  3001               	movlw	1
  4264  01B2  0020               	movlb	0	; select bank0
  4265  01B3  07AC               	addwf	_cargoData+12,f
  4266  01B4  3000               	movlw	0
  4267  01B5  3DAD               	addwfc	_cargoData+13,f
  4268  01B6  3000               	movlw	0
  4269  01B7  3DAE               	addwfc	_cargoData+14,f
  4270  01B8  3000               	movlw	0
  4271  01B9  3DAF               	addwfc	_cargoData+15,f
  4272                           
  4273                           ;normal_mode.c: 98: spi2_Send_data = (cargoData.WorkingCount >> 24 & 0x000000ff);
  4274  01BA  082C               	movf	_cargoData+12,w
  4275  01BB  00E1               	movwf	??_readCargo
  4276  01BC  082D               	movf	_cargoData+13,w
  4277  01BD  00E2               	movwf	??_readCargo+1
  4278  01BE  082E               	movf	_cargoData+14,w
  4279  01BF  00E3               	movwf	??_readCargo+2
  4280  01C0  082F               	movf	_cargoData+15,w
  4281  01C1  00E4               	movwf	??_readCargo+3
  4282  01C2  3018               	movlw	24
  4283  01C3                     u945:	
  4284  01C3  36E4               	lsrf	??_readCargo+3,f
  4285  01C4  0CE3               	rrf	??_readCargo+2,f
  4286  01C5  0CE2               	rrf	??_readCargo+1,f
  4287  01C6  0CE1               	rrf	??_readCargo,f
  4288  01C7  0B89               	decfsz	9,f
  4289  01C8  29C3               	goto	u945
  4290  01C9  29E9               	goto	L13
  4291  01CA                     l2428:	
  4292                           ;normal_mode.c: 100: case 13:
  4293                           
  4294                           ;normal_mode.c: 99: break;
  4295                           
  4296                           
  4297                           ;normal_mode.c: 101: spi2_Send_data = (cargoData.WorkingCount >> 16 & 0x000000ff);
  4298  01CA  082C               	movf	_cargoData+12,w
  4299  01CB  00E1               	movwf	??_readCargo
  4300  01CC  082D               	movf	_cargoData+13,w
  4301  01CD  00E2               	movwf	??_readCargo+1
  4302  01CE  082E               	movf	_cargoData+14,w
  4303  01CF  00E3               	movwf	??_readCargo+2
  4304  01D0  082F               	movf	_cargoData+15,w
  4305  01D1  00E4               	movwf	??_readCargo+3
  4306  01D2  3010               	movlw	16
  4307  01D3                     u955:	
  4308  01D3  36E4               	lsrf	??_readCargo+3,f
  4309  01D4  0CE3               	rrf	??_readCargo+2,f
  4310  01D5  0CE2               	rrf	??_readCargo+1,f
  4311  01D6  0CE1               	rrf	??_readCargo,f
  4312  01D7  0B89               	decfsz	9,f
  4313  01D8  29D3               	goto	u955
  4314  01D9  29E9               	goto	L13
  4315  01DA                     l2430:	
  4316                           ;normal_mode.c: 103: case 14:
  4317                           
  4318                           ;normal_mode.c: 102: break;
  4319                           
  4320                           
  4321                           ;normal_mode.c: 104: spi2_Send_data = (cargoData.WorkingCount >> 8 & 0x000000ff);
  4322  01DA  082C               	movf	_cargoData+12,w
  4323  01DB  00E1               	movwf	??_readCargo
  4324  01DC  082D               	movf	_cargoData+13,w
  4325  01DD  00E2               	movwf	??_readCargo+1
  4326  01DE  082E               	movf	_cargoData+14,w
  4327  01DF  00E3               	movwf	??_readCargo+2
  4328  01E0  082F               	movf	_cargoData+15,w
  4329  01E1  00E4               	movwf	??_readCargo+3
  4330  01E2  3008               	movlw	8
  4331  01E3                     u965:	
  4332  01E3  36E4               	lsrf	??_readCargo+3,f
  4333  01E4  0CE3               	rrf	??_readCargo+2,f
  4334  01E5  0CE2               	rrf	??_readCargo+1,f
  4335  01E6  0CE1               	rrf	??_readCargo,f
  4336  01E7  0B89               	decfsz	9,f
  4337  01E8  29E3               	goto	u965
  4338  01E9                     L13:	
  4339  01E9  0861               	movf	??_readCargo,w
  4340  01EA  00E5               	movwf	??_readCargo+4
  4341  01EB  0865               	movf	??_readCargo+4,w
  4342  01EC  29F0               	goto	L10
  4343  01ED                     l2432:	
  4344                           ;normal_mode.c: 106: case 15:
  4345                           
  4346                           ;normal_mode.c: 105: break;
  4347                           
  4348                           
  4349                           ;normal_mode.c: 107: spi2_Send_data = (cargoData.WorkingCount & 0x000000ff);
  4350  01ED  082C               	movf	_cargoData+12,w
  4351  01EE                     L11:	
  4352  01EE  00E1               	movwf	??_readCargo
  4353  01EF  0861               	movf	??_readCargo,w
  4354  01F0                     L10:	
  4355  01F0  00DF               	movwf	_spi2_Send_data
  4356                           
  4357                           ;normal_mode.c: 109: }
  4358                           
  4359                           ;normal_mode.c: 108: break;
  4360  01F1  2A01               	goto	l2438
  4361  01F2                     l2436:	
  4362                           
  4363                           ; Switch on 2 bytes has been partitioned into a top level switch of size 1, and 1 sub-sw
      +                          itches
  4364                           ; Switch size 1, requested type "space"
  4365                           ; Number of cases is 1, Range of values is 0 to 0
  4366                           ; switch strategies available:
  4367                           ; Name         Instructions Cycles
  4368                           ; simple_byte            4     3 (average)
  4369                           ; direct_byte            8     6 (fixed)
  4370                           ; jumptable            260     6 (fixed)
  4371                           ;	Chosen strategy is simple_byte
  4372  01F2  0852               	movf	_countabuf+1,w
  4373  01F3  3A00               	xorlw	0	; case 0
  4374  01F4  1903               	skipnz
  4375  01F5  29F7               	goto	l2776
  4376  01F6  2A01               	goto	l2438
  4377  01F7                     l2776:	
  4378                           
  4379                           ; Switch size 1, requested type "space"
  4380                           ; Number of cases is 16, Range of values is 0 to 15
  4381                           ; switch strategies available:
  4382                           ; Name         Instructions Cycles
  4383                           ; direct_byte           38     6 (fixed)
  4384                           ; simple_byte           49    25 (average)
  4385                           ; jumptable            260     6 (fixed)
  4386                           ;	Chosen strategy is direct_byte
  4387  01F7  0851               	movf	_countabuf,w
  4388  01F8  0084               	movwf	4
  4389  01F9  3010               	movlw	16
  4390  01FA  0204               	subwf	4,w
  4391  01FB  1803               	skipnc
  4392  01FC  2A01               	goto	l2438
  4393  01FD  3185               	movlp	high S2778
  4394  01FE  3504               	lslf	4,w
  4395  01FF  3E41               	addlw	low S2778
  4396  0200  0082               	movwf	2
  4397  0201                     l2438:	
  4398                           
  4399                           ;normal_mode.c: 110: }
  4400                           ;normal_mode.c: 112: countabuf++;
  4401  0201  3001               	movlw	1
  4402  0202  0020               	movlb	0	; select bank0
  4403  0203  07D1               	addwf	_countabuf,f
  4404  0204  3000               	movlw	0
  4405  0205  3DD2               	addwfc	_countabuf+1,f
  4406                           
  4407                           ;normal_mode.c: 113: if(cargoData.cargoLength <= countabuf){
  4408  0206  0821               	movf	_cargoData+1,w
  4409  0207  0252               	subwf	_countabuf+1,w
  4410  0208  1D03               	skipz
  4411  0209  2A0C               	goto	u975
  4412  020A  0820               	movf	_cargoData,w
  4413  020B  0251               	subwf	_countabuf,w
  4414  020C                     u975:	
  4415  020C  1C03               	skipc
  4416  020D  0008               	return
  4417                           
  4418                           ;normal_mode.c: 114: cargoLengthnuf = 0;
  4419  020E  01C5               	clrf	_cargoLengthnuf
  4420  020F  01C6               	clrf	_cargoLengthnuf+1
  4421                           
  4422                           ;normal_mode.c: 115: cargoWorkingCount = 0;
  4423  0210  3000               	movlw	0
  4424  0211  0021               	movlb	1	; select bank1
  4425  0212  00C7               	movwf	(_cargoWorkingCount+3)^(0+128)
  4426  0213  3000               	movlw	0
  4427  0214  00C6               	movwf	(_cargoWorkingCount+2)^(0+128)
  4428  0215  3000               	movlw	0
  4429  0216  00C5               	movwf	(_cargoWorkingCount+1)^(0+128)
  4430  0217  3000               	movlw	0
  4431  0218  00C4               	movwf	_cargoWorkingCount^(0+128)
  4432                           
  4433                           ;normal_mode.c: 116: cargoData.cargoLength = 0xFFFF;
  4434  0219  30FF               	movlw	255
  4435  021A  0020               	movlb	0	; select bank0
  4436  021B  00A0               	movwf	_cargoData
  4437  021C  30FF               	movlw	255
  4438  021D  00A1               	movwf	_cargoData+1
  4439                           
  4440                           ;normal_mode.c: 117: countabuf = 0;
  4441  021E  01D1               	clrf	_countabuf
  4442  021F  01D2               	clrf	_countabuf+1
  4443                           
  4444                           ;normal_mode.c: 118: isMycargo = 1;
  4445  0220  14ED               	bsf	_isMycargo/(0+8),_isMycargo& (0+7)
  4446  0221  0008               	return
  4447  0222                     __end_of_readCargo:	
  4448                           
  4449                           	psect	swtext1
  4450  0541                     __pswtext1:	
  4451  0541                     S2778:	
  4452  0541  3181  296F         	ljmp	l464
  4453  0543  3181  297A         	ljmp	l466
  4454  0545  3181  2984         	ljmp	l2398
  4455  0547  3181  2989         	ljmp	l2400
  4456  0549  3181  298E         	ljmp	l2402
  4457  054B  3181  299C         	ljmp	l2408
  4458  054D  3181  299E         	ljmp	l2410
  4459  054F  3181  29A0         	ljmp	l2412
  4460  0551  3181  29A2         	ljmp	l2414
  4461  0553  3181  29A4         	ljmp	l2416
  4462  0555  3181  29A6         	ljmp	l2418
  4463  0557  3181  29A8         	ljmp	l2420
  4464  0559  3181  29B1         	ljmp	l2424
  4465  055B  3181  29CA         	ljmp	l2428
  4466  055D  3181  29DA         	ljmp	l2430
  4467  055F  3181  29ED         	ljmp	l2432
  4468                           
  4469                           	psect	text7
  4470  05E8                     __ptext7:	
  4471 ;; *************** function _clutchaction *****************
  4472 ;; Defined at:
  4473 ;;		line 50 in file "D:/programdata/16F18346_Link_IC.X/command.c"
  4474 ;; Parameters:    Size  Location     Type
  4475 ;;  comannd         1    wreg     unsigned char 
  4476 ;; Auto vars:     Size  Location     Type
  4477 ;;  comannd         1    0[BANK0 ] unsigned char 
  4478 ;; Return value:  Size  Location     Type
  4479 ;;		None               void
  4480 ;; Registers used:
  4481 ;;		wreg, status,2, status,0
  4482 ;; Tracked objects:
  4483 ;;		On entry : 0/0
  4484 ;;		On exit  : 0/0
  4485 ;;		Unchanged: 0/0
  4486 ;; Data sizes:     COMMON   BANK0   BANK1   BANK2   BANK3   BANK4   BANK5   BANK6   BANK7   BANK8   BANK9  BANK10  BANK1
      +1  BANK12  BANK13  BANK14  BANK15  BANK16  BANK17  BANK18  BANK19  BANK20  BANK21  BANK22  BANK23  BANK24  BANK25
  4487 ;;      Params:         0       0       0       0       0       0       0       0       0       0       0       0       
      +0       0       0       0       0       0       0       0       0       0       0       0       0       0       0
  4488 ;;      Locals:         0       1       0       0       0       0       0       0       0       0       0       0       
      +0       0       0       0       0       0       0       0       0       0       0       0       0       0       0
  4489 ;;      Temps:          0       0       0       0       0       0       0       0       0       0       0       0       
      +0       0       0       0       0       0       0       0       0       0       0       0       0       0       0
  4490 ;;      Totals:         0       1       0       0       0       0       0       0       0       0       0       0       
      +0       0       0       0       0       0       0       0       0       0       0       0       0       0       0
  4491 ;;Total ram usage:        1 bytes
  4492 ;; Hardware stack levels used:    1
  4493 ;; Hardware stack levels required when called:    3
  4494 ;; This function calls:
  4495 ;;		Nothing
  4496 ;; This function is called by:
  4497 ;;		_readCargo
  4498 ;; This function uses a non-reentrant model
  4499 ;;
  4500                           
  4501                           
  4502                           ;psect for function _clutchaction
  4503  05E8                     _clutchaction:	
  4504                           
  4505                           ;incstack = 0
  4506                           ; Regs used in _clutchaction: [wreg+status,2+status,0]
  4507                           ;clutchaction@comannd stored from wreg
  4508  05E8  0020               	movlb	0	; select bank0
  4509  05E9  00E0               	movwf	clutchaction@comannd
  4510                           
  4511                           ;command.c: 51: if(comannd == 1){
  4512  05EA  0360               	decf	clutchaction@comannd,w
  4513  05EB  1D03               	btfss	3,2
  4514  05EC  2DF0               	goto	l315
  4515                           
  4516                           ;command.c: 52: LATAbits.LATA0 = 1;
  4517  05ED  0022               	movlb	2	; select bank2
  4518  05EE  140C               	bsf	12,0	;volatile
  4519                           
  4520                           ;command.c: 53: }else{
  4521  05EF  0008               	return
  4522  05F0                     l315:	
  4523                           
  4524                           ;command.c: 54: LATAbits.LATA0 = 0;
  4525  05F0  0022               	movlb	2	; select bank2
  4526  05F1  100C               	bcf	12,0	;volatile
  4527  05F2  0008               	return
  4528  05F3                     __end_of_clutchaction:	
  4529                           
  4530                           	psect	text8
  4531  0081                     __ptext8:	
  4532 ;; *************** function _Calibrate_download *****************
  4533 ;; Defined at:
  4534 ;;		line 73 in file "D:/programdata/16F18346_Link_IC.X/calibrate_mode.c"
  4535 ;; Parameters:    Size  Location     Type
  4536 ;;  spi_Read_dat    1    wreg     unsigned char 
  4537 ;; Auto vars:     Size  Location     Type
  4538 ;;  spi_Read_dat    1    7[BANK1 ] unsigned char 
  4539 ;;  buflong         4    0[BANK1 ] unsigned long 
  4540 ;;  bufint          2    5[BANK1 ] unsigned int 
  4541 ;;  buf             1    4[BANK1 ] unsigned char 
  4542 ;; Return value:  Size  Location     Type
  4543 ;;                  1    wreg      void 
  4544 ;; Registers used:
  4545 ;;		wreg, fsr0l, fsr0h, fsr1l, fsr1h, status,2, status,0, pclath, cstack
  4546 ;; Tracked objects:
  4547 ;;		On entry : 0/0
  4548 ;;		On exit  : 0/0
  4549 ;;		Unchanged: 0/0
  4550 ;; Data sizes:     COMMON   BANK0   BANK1   BANK2   BANK3   BANK4   BANK5   BANK6   BANK7   BANK8   BANK9  BANK10  BANK1
      +1  BANK12  BANK13  BANK14  BANK15  BANK16  BANK17  BANK18  BANK19  BANK20  BANK21  BANK22  BANK23  BANK24  BANK25
  4551 ;;      Params:         0       0       0       0       0       0       0       0       0       0       0       0       
      +0       0       0       0       0       0       0       0       0       0       0       0       0       0       0
  4552 ;;      Locals:         0       0       8       0       0       0       0       0       0       0       0       0       
      +0       0       0       0       0       0       0       0       0       0       0       0       0       0       0
  4553 ;;      Temps:          0       5       0       0       0       0       0       0       0       0       0       0       
      +0       0       0       0       0       0       0       0       0       0       0       0       0       0       0
  4554 ;;      Totals:         0       5       8       0       0       0       0       0       0       0       0       0       
      +0       0       0       0       0       0       0       0       0       0       0       0       0       0       0
  4555 ;;Total ram usage:       13 bytes
  4556 ;; Hardware stack levels used:    1
  4557 ;; Hardware stack levels required when called:    5
  4558 ;; This function calls:
  4559 ;;		_InitCalibrate
  4560 ;;		_isEndpoint
  4561 ;; This function is called by:
  4562 ;;		_setComunicateMode
  4563 ;; This function uses a non-reentrant model
  4564 ;;
  4565                           
  4566                           
  4567                           ;psect for function _Calibrate_download
  4568  0081                     _Calibrate_download:	
  4569                           
  4570                           ;incstack = 0
  4571                           ; Regs used in _Calibrate_download: [wreg-fsr1h+status,2+status,0+pclath+cstack]
  4572                           ;Calibrate_download@spi_Read_data stored from wreg
  4573  0081  0021               	movlb	1	; select bank1
  4574  0082  00CF               	movwf	Calibrate_download@spi_Read_data^(0+128)
  4575                           
  4576                           ;calibrate_mode.c: 75: unsigned int bufint = spi_Read_data;
  4577  0083  084F               	movf	Calibrate_download@spi_Read_data^(0+128),w
  4578  0084  0020               	movlb	0	; select bank0
  4579  0085  00E7               	movwf	??_Calibrate_download
  4580  0086  01E8               	clrf	??_Calibrate_download+1
  4581  0087  0867               	movf	??_Calibrate_download,w
  4582  0088  0021               	movlb	1	; select bank1
  4583  0089  00CD               	movwf	Calibrate_download@bufint^(0+128)
  4584  008A  0020               	movlb	0	; select bank0
  4585  008B  0868               	movf	??_Calibrate_download+1,w
  4586  008C  0021               	movlb	1	; select bank1
  4587  008D  00CE               	movwf	(Calibrate_download@bufint+1)^(0+128)
  4588                           
  4589                           ;calibrate_mode.c: 76: unsigned long buflong = spi_Read_data;
  4590  008E  084F               	movf	Calibrate_download@spi_Read_data^(0+128),w
  4591  008F  0020               	movlb	0	; select bank0
  4592  0090  00E7               	movwf	??_Calibrate_download
  4593  0091  01E8               	clrf	??_Calibrate_download+1
  4594  0092  01E9               	clrf	??_Calibrate_download+2
  4595  0093  01EA               	clrf	??_Calibrate_download+3
  4596  0094  086A               	movf	??_Calibrate_download+3,w
  4597  0095  0021               	movlb	1	; select bank1
  4598  0096  00CB               	movwf	(Calibrate_download@buflong+3)^(0+128)
  4599  0097  0020               	movlb	0	; select bank0
  4600  0098  0869               	movf	??_Calibrate_download+2,w
  4601  0099  0021               	movlb	1	; select bank1
  4602  009A  00CA               	movwf	(Calibrate_download@buflong+2)^(0+128)
  4603  009B  0020               	movlb	0	; select bank0
  4604  009C  0868               	movf	??_Calibrate_download+1,w
  4605  009D  0021               	movlb	1	; select bank1
  4606  009E  00C9               	movwf	(Calibrate_download@buflong+1)^(0+128)
  4607  009F  0020               	movlb	0	; select bank0
  4608  00A0  0867               	movf	??_Calibrate_download,w
  4609  00A1  0021               	movlb	1	; select bank1
  4610  00A2  00C8               	movwf	Calibrate_download@buflong^(0+128)
  4611                           
  4612                           ;calibrate_mode.c: 77: isEndpoint();
  4613  00A3  3183  23C7  3180   	fcall	_isEndpoint
  4614                           
  4615                           ;calibrate_mode.c: 78: if(isMycargo){
  4616  00A6  0020               	movlb	0	; select bank0
  4617  00A7  18ED               	btfsc	_isMycargo/(0+8),_isMycargo& (0+7)
  4618  00A8  292D               	goto	l2370
  4619  00A9  293C               	goto	l2372
  4620  00AA                     l2334:	
  4621                           ;calibrate_mode.c: 80: case 0:
  4622                           
  4623                           ;calibrate_mode.c: 79: switch(countabuf){
  4624                           
  4625                           
  4626                           ;calibrate_mode.c: 81: InitCalibrate();
  4627  00AA  3185  257A  3180   	fcall	_InitCalibrate
  4628                           
  4629                           ;calibrate_mode.c: 82: calibdata.cargoLength = (bufint << 8 | 0x00FF);
  4630  00AD  0021               	movlb	1	; select bank1
  4631  00AE  084D               	movf	Calibrate_download@bufint^(0+128),w
  4632  00AF  0020               	movlb	0	; select bank0
  4633  00B0  00E8               	movwf	??_Calibrate_download+1
  4634  00B1  01E7               	clrf	??_Calibrate_download
  4635  00B2  30FF               	movlw	255
  4636  00B3  0467               	iorwf	??_Calibrate_download,w
  4637  00B4  00B0               	movwf	_calibdata
  4638  00B5  3000               	movlw	0
  4639  00B6  0468               	iorwf	??_Calibrate_download+1,w
  4640  00B7  28C7               	goto	L14
  4641  00B8                     l2340:	
  4642                           ;calibrate_mode.c: 85: case 1:
  4643                           
  4644                           ;calibrate_mode.c: 84: break;
  4645                           
  4646                           ;calibrate_mode.c: 83: spi2_Send_data = spi_Read_data;
  4647                           
  4648                           
  4649                           ;calibrate_mode.c: 86: calibdata.cargoLength = calibdata.cargoLength & (bufint | 0xFF00)
      +                          ;
  4650  00B8  3000               	movlw	0
  4651  00B9  0021               	movlb	1	; select bank1
  4652  00BA  044D               	iorwf	Calibrate_download@bufint^(0+128),w
  4653  00BB  0020               	movlb	0	; select bank0
  4654  00BC  00E7               	movwf	??_Calibrate_download
  4655  00BD  30FF               	movlw	255
  4656  00BE  0021               	movlb	1	; select bank1
  4657  00BF  044E               	iorwf	(Calibrate_download@bufint+1)^(0+128),w
  4658  00C0  0020               	movlb	0	; select bank0
  4659  00C1  00E8               	movwf	??_Calibrate_download+1
  4660  00C2  0830               	movf	_calibdata,w
  4661  00C3  0567               	andwf	??_Calibrate_download,w
  4662  00C4  00B0               	movwf	_calibdata
  4663  00C5  0831               	movf	_calibdata+1,w
  4664  00C6  0568               	andwf	??_Calibrate_download+1,w
  4665  00C7                     L14:	
  4666  00C7  00B1               	movwf	_calibdata+1
  4667  00C8  28D6               	goto	L16
  4668  00C9                     l2342:	
  4669                           ;calibrate_mode.c: 89: case 2:
  4670                           
  4671                           ;calibrate_mode.c: 88: break;
  4672                           
  4673                           ;calibrate_mode.c: 87: spi2_Send_data = spi_Read_data;
  4674                           
  4675                           
  4676                           ;calibrate_mode.c: 90: calibdata.command = spi_Read_data;
  4677  00C9  0021               	movlb	1	; select bank1
  4678  00CA  084F               	movf	Calibrate_download@spi_Read_data^(0+128),w
  4679  00CB  0020               	movlb	0	; select bank0
  4680  00CC  00E7               	movwf	??_Calibrate_download
  4681  00CD  0867               	movf	??_Calibrate_download,w
  4682  00CE  00B2               	movwf	_calibdata+2
  4683  00CF  28D6               	goto	L16
  4684  00D0                     l2344:	
  4685                           ;calibrate_mode.c: 93: case 3:
  4686                           
  4687                           ;calibrate_mode.c: 92: break;
  4688                           
  4689                           ;calibrate_mode.c: 91: spi2_Send_data = spi_Read_data;
  4690                           
  4691                           
  4692                           ;calibrate_mode.c: 94: calibdata.index = spi_Read_data;
  4693  00D0  0021               	movlb	1	; select bank1
  4694  00D1  084F               	movf	Calibrate_download@spi_Read_data^(0+128),w
  4695  00D2  0020               	movlb	0	; select bank0
  4696  00D3  00E7               	movwf	??_Calibrate_download
  4697  00D4  0867               	movf	??_Calibrate_download,w
  4698  00D5  00B3               	movwf	_calibdata+3
  4699  00D6                     L16:	
  4700                           
  4701                           ;calibrate_mode.c: 95: spi2_Send_data = spi_Read_data;
  4702  00D6  0021               	movlb	1	; select bank1
  4703  00D7  084F               	movf	Calibrate_download@spi_Read_data^(0+128),w
  4704  00D8  0020               	movlb	0	; select bank0
  4705  00D9  2929               	goto	L25
  4706  00DA                     l2346:	
  4707                           ;calibrate_mode.c: 97: case 4:
  4708                           
  4709                           ;calibrate_mode.c: 96: break;
  4710                           
  4711                           
  4712                           ;calibrate_mode.c: 98: linkInfo.My_address = spi_Read_data +1;
  4713  00DA  0021               	movlb	1	; select bank1
  4714  00DB  084F               	movf	Calibrate_download@spi_Read_data^(0+128),w
  4715  00DC  3E01               	addlw	1
  4716  00DD  0020               	movlb	0	; select bank0
  4717  00DE  00E7               	movwf	??_Calibrate_download
  4718  00DF  0867               	movf	??_Calibrate_download,w
  4719  00E0  00B9               	movwf	_linkInfo
  4720  00E1  2928               	goto	L26
  4721  00E2                     l2350:	
  4722                           ;calibrate_mode.c: 101: case 5:
  4723                           
  4724                           ;calibrate_mode.c: 100: break;
  4725                           
  4726                           ;calibrate_mode.c: 99: spi2_Send_data = linkInfo.My_address;
  4727                           
  4728                           
  4729                           ;calibrate_mode.c: 102: calibdata.WorkingCount++;
  4730  00E2  3001               	movlw	1
  4731  00E3  07B4               	addwf	_calibdata+4,f
  4732  00E4  3000               	movlw	0
  4733  00E5  3DB5               	addwfc	_calibdata+5,f
  4734  00E6  3000               	movlw	0
  4735  00E7  3DB6               	addwfc	_calibdata+6,f
  4736  00E8  3000               	movlw	0
  4737  00E9  3DB7               	addwfc	_calibdata+7,f
  4738                           
  4739                           ;calibrate_mode.c: 103: spi2_Send_data = (calibdata.WorkingCount >> 24 & 0x000000ff);
  4740  00EA  0834               	movf	_calibdata+4,w
  4741  00EB  00E7               	movwf	??_Calibrate_download
  4742  00EC  0835               	movf	_calibdata+5,w
  4743  00ED  00E8               	movwf	??_Calibrate_download+1
  4744  00EE  0836               	movf	_calibdata+6,w
  4745  00EF  00E9               	movwf	??_Calibrate_download+2
  4746  00F0  0837               	movf	_calibdata+7,w
  4747  00F1  00EA               	movwf	??_Calibrate_download+3
  4748  00F2  3018               	movlw	24
  4749  00F3                     u875:	
  4750  00F3  36EA               	lsrf	??_Calibrate_download+3,f
  4751  00F4  0CE9               	rrf	??_Calibrate_download+2,f
  4752  00F5  0CE8               	rrf	??_Calibrate_download+1,f
  4753  00F6  0CE7               	rrf	??_Calibrate_download,f
  4754  00F7  0B89               	decfsz	9,f
  4755  00F8  28F3               	goto	u875
  4756  00F9  2919               	goto	L24
  4757  00FA                     l2354:	
  4758                           ;calibrate_mode.c: 105: case 6:
  4759                           
  4760                           ;calibrate_mode.c: 104: break;
  4761                           
  4762                           
  4763                           ;calibrate_mode.c: 106: spi2_Send_data = (calibdata.WorkingCount >> 16 & 0x000000ff);
  4764  00FA  0834               	movf	_calibdata+4,w
  4765  00FB  00E7               	movwf	??_Calibrate_download
  4766  00FC  0835               	movf	_calibdata+5,w
  4767  00FD  00E8               	movwf	??_Calibrate_download+1
  4768  00FE  0836               	movf	_calibdata+6,w
  4769  00FF  00E9               	movwf	??_Calibrate_download+2
  4770  0100  0837               	movf	_calibdata+7,w
  4771  0101  00EA               	movwf	??_Calibrate_download+3
  4772  0102  3010               	movlw	16
  4773  0103                     u885:	
  4774  0103  36EA               	lsrf	??_Calibrate_download+3,f
  4775  0104  0CE9               	rrf	??_Calibrate_download+2,f
  4776  0105  0CE8               	rrf	??_Calibrate_download+1,f
  4777  0106  0CE7               	rrf	??_Calibrate_download,f
  4778  0107  0B89               	decfsz	9,f
  4779  0108  2903               	goto	u885
  4780  0109  2919               	goto	L24
  4781  010A                     l2356:	
  4782                           ;calibrate_mode.c: 108: case 7:
  4783                           
  4784                           ;calibrate_mode.c: 107: break;
  4785                           
  4786                           
  4787                           ;calibrate_mode.c: 109: spi2_Send_data = (calibdata.WorkingCount >> 8 & 0x000000ff);
  4788  010A  0834               	movf	_calibdata+4,w
  4789  010B  00E7               	movwf	??_Calibrate_download
  4790  010C  0835               	movf	_calibdata+5,w
  4791  010D  00E8               	movwf	??_Calibrate_download+1
  4792  010E  0836               	movf	_calibdata+6,w
  4793  010F  00E9               	movwf	??_Calibrate_download+2
  4794  0110  0837               	movf	_calibdata+7,w
  4795  0111  00EA               	movwf	??_Calibrate_download+3
  4796  0112  3008               	movlw	8
  4797  0113                     u895:	
  4798  0113  36EA               	lsrf	??_Calibrate_download+3,f
  4799  0114  0CE9               	rrf	??_Calibrate_download+2,f
  4800  0115  0CE8               	rrf	??_Calibrate_download+1,f
  4801  0116  0CE7               	rrf	??_Calibrate_download,f
  4802  0117  0B89               	decfsz	9,f
  4803  0118  2913               	goto	u895
  4804  0119                     L24:	
  4805  0119  0867               	movf	??_Calibrate_download,w
  4806  011A  00EB               	movwf	??_Calibrate_download+4
  4807  011B  086B               	movf	??_Calibrate_download+4,w
  4808  011C  292B               	goto	L22
  4809  011D                     l2358:	
  4810                           ;calibrate_mode.c: 111: case 8:
  4811                           
  4812                           ;calibrate_mode.c: 110: break;
  4813                           
  4814                           
  4815                           ;calibrate_mode.c: 112: spi2_Send_data = (calibdata.WorkingCount & 0x000000ff);
  4816  011D  0834               	movf	_calibdata+4,w
  4817  011E  2929               	goto	L25
  4818  011F                     l388:	
  4819                           ;calibrate_mode.c: 114: case 9:
  4820                           
  4821                           ;calibrate_mode.c: 113: break;
  4822                           
  4823                           
  4824                           ;calibrate_mode.c: 115: if(isEndPointTrig == 1){
  4825  011F  1C6D               	btfss	_isEndPointTrig/(0+8),_isEndPointTrig& (0+7)
  4826  0120  2924               	goto	l2362
  4827                           
  4828                           ;calibrate_mode.c: 117: linkInfo.endpoint = 1;
  4829  0121  01BE               	clrf	_linkInfo+5
  4830  0122  0ABE               	incf	_linkInfo+5,f
  4831                           
  4832                           ;calibrate_mode.c: 118: }else{
  4833  0123  2925               	goto	l2364
  4834  0124                     l2362:	
  4835                           
  4836                           ;calibrate_mode.c: 119: linkInfo.endpoint = 0;
  4837  0124  01BE               	clrf	_linkInfo+5
  4838  0125                     l2364:	
  4839                           
  4840                           ;calibrate_mode.c: 120: }
  4841                           ;calibrate_mode.c: 121: LATAbits.LATA0 = 0;
  4842  0125  0022               	movlb	2	; select bank2
  4843  0126  100C               	bcf	12,0	;volatile
  4844                           
  4845                           ;calibrate_mode.c: 122: spi2_Send_data = linkInfo.My_address;
  4846  0127  0020               	movlb	0	; select bank0
  4847  0128                     L26:	
  4848  0128  0839               	movf	_linkInfo,w
  4849  0129                     L25:	
  4850  0129  00E7               	movwf	??_Calibrate_download
  4851  012A  0867               	movf	??_Calibrate_download,w
  4852  012B                     L22:	
  4853  012B  00DF               	movwf	_spi2_Send_data
  4854                           
  4855                           ;calibrate_mode.c: 124: }
  4856                           
  4857                           ;calibrate_mode.c: 123: break;
  4858  012C  293C               	goto	l2372
  4859  012D                     l2370:	
  4860                           
  4861                           ; Switch on 2 bytes has been partitioned into a top level switch of size 1, and 1 sub-sw
      +                          itches
  4862                           ; Switch size 1, requested type "space"
  4863                           ; Number of cases is 1, Range of values is 0 to 0
  4864                           ; switch strategies available:
  4865                           ; Name         Instructions Cycles
  4866                           ; simple_byte            4     3 (average)
  4867                           ; direct_byte            8     6 (fixed)
  4868                           ; jumptable            260     6 (fixed)
  4869                           ;	Chosen strategy is simple_byte
  4870  012D  0852               	movf	_countabuf+1,w
  4871  012E  3A00               	xorlw	0	; case 0
  4872  012F  1903               	skipnz
  4873  0130  2932               	goto	l2780
  4874  0131  293C               	goto	l2372
  4875  0132                     l2780:	
  4876                           
  4877                           ; Switch size 1, requested type "space"
  4878                           ; Number of cases is 10, Range of values is 0 to 9
  4879                           ; switch strategies available:
  4880                           ; Name         Instructions Cycles
  4881                           ; direct_byte           26     6 (fixed)
  4882                           ; simple_byte           31    16 (average)
  4883                           ; jumptable            260     6 (fixed)
  4884                           ;	Chosen strategy is direct_byte
  4885  0132  0851               	movf	_countabuf,w
  4886  0133  0084               	movwf	4
  4887  0134  300A               	movlw	10
  4888  0135  0204               	subwf	4,w
  4889  0136  1803               	skipnc
  4890  0137  293C               	goto	l2372
  4891  0138  3185               	movlp	high S2782
  4892  0139  3504               	lslf	4,w
  4893  013A  3E90               	addlw	low S2782
  4894  013B  0082               	movwf	2
  4895  013C                     l2372:	
  4896                           
  4897                           ;calibrate_mode.c: 125: }
  4898                           ;calibrate_mode.c: 127: countabuf++;
  4899  013C  3001               	movlw	1
  4900  013D  07D1               	addwf	_countabuf,f
  4901  013E  3000               	movlw	0
  4902  013F  3DD2               	addwfc	_countabuf+1,f
  4903                           
  4904                           ;calibrate_mode.c: 128: unsigned char buf = calibdata.cargoLength & 0x00FF;
  4905  0140  0830               	movf	_calibdata,w
  4906  0141  00E7               	movwf	??_Calibrate_download
  4907  0142  0867               	movf	??_Calibrate_download,w
  4908  0143  0021               	movlb	1	; select bank1
  4909  0144  00CC               	movwf	Calibrate_download@buf^(0+128)
  4910                           
  4911                           ;calibrate_mode.c: 129: if(calibdata.cargoLength <= countabuf){
  4912  0145  0020               	movlb	0	; select bank0
  4913  0146  0831               	movf	_calibdata+1,w
  4914  0147  0252               	subwf	_countabuf+1,w
  4915  0148  1D03               	skipz
  4916  0149  294C               	goto	u915
  4917  014A  0830               	movf	_calibdata,w
  4918  014B  0251               	subwf	_countabuf,w
  4919  014C                     u915:	
  4920  014C  1C03               	skipc
  4921  014D  0008               	return
  4922                           
  4923                           ;calibrate_mode.c: 130: calibdata.cargoLength = 0xFFFF;
  4924  014E  30FF               	movlw	255
  4925  014F  00B0               	movwf	_calibdata
  4926  0150  30FF               	movlw	255
  4927  0151  00B1               	movwf	_calibdata+1
  4928                           
  4929                           ;calibrate_mode.c: 131: countabuf = 0;
  4930  0152  01D1               	clrf	_countabuf
  4931  0153  01D2               	clrf	_countabuf+1
  4932                           
  4933                           ;calibrate_mode.c: 132: isMycargo = 1;
  4934  0154  14ED               	bsf	_isMycargo/(0+8),_isMycargo& (0+7)
  4935  0155  0008               	return
  4936  0156                     __end_of_Calibrate_download:	
  4937                           
  4938                           	psect	swtext2
  4939  0590                     __pswtext2:	
  4940  0590                     S2782:	
  4941  0590  3180  28AA         	ljmp	l2334
  4942  0592  3180  28B8         	ljmp	l2340
  4943  0594  3180  28C9         	ljmp	l2342
  4944  0596  3180  28D0         	ljmp	l2344
  4945  0598  3180  28DA         	ljmp	l2346
  4946  059A  3180  28E2         	ljmp	l2350
  4947  059C  3180  28FA         	ljmp	l2354
  4948  059E  3181  290A         	ljmp	l2356
  4949  05A0  3181  291D         	ljmp	l2358
  4950  05A2  3181  291F         	ljmp	l388
  4951                           
  4952                           	psect	text9
  4953  03C7                     __ptext9:	
  4954 ;; *************** function _isEndpoint *****************
  4955 ;; Defined at:
  4956 ;;		line 30 in file "D:/programdata/16F18346_Link_IC.X/calibrate_mode.c"
  4957 ;; Parameters:    Size  Location     Type
  4958 ;;		None
  4959 ;; Auto vars:     Size  Location     Type
  4960 ;;  spi2data        1    6[BANK0 ] unsigned char 
  4961 ;; Return value:  Size  Location     Type
  4962 ;;		None               void
  4963 ;; Registers used:
  4964 ;;		wreg, fsr1l, fsr1h, status,2, status,0, pclath, cstack
  4965 ;; Tracked objects:
  4966 ;;		On entry : 0/0
  4967 ;;		On exit  : 0/0
  4968 ;;		Unchanged: 0/0
  4969 ;; Data sizes:     COMMON   BANK0   BANK1   BANK2   BANK3   BANK4   BANK5   BANK6   BANK7   BANK8   BANK9  BANK10  BANK1
      +1  BANK12  BANK13  BANK14  BANK15  BANK16  BANK17  BANK18  BANK19  BANK20  BANK21  BANK22  BANK23  BANK24  BANK25
  4970 ;;      Params:         0       0       0       0       0       0       0       0       0       0       0       0       
      +0       0       0       0       0       0       0       0       0       0       0       0       0       0       0
  4971 ;;      Locals:         0       1       0       0       0       0       0       0       0       0       0       0       
      +0       0       0       0       0       0       0       0       0       0       0       0       0       0       0
  4972 ;;      Temps:          0       5       0       0       0       0       0       0       0       0       0       0       
      +0       0       0       0       0       0       0       0       0       0       0       0       0       0       0
  4973 ;;      Totals:         0       6       0       0       0       0       0       0       0       0       0       0       
      +0       0       0       0       0       0       0       0       0       0       0       0       0       0       0
  4974 ;;Total ram usage:        6 bytes
  4975 ;; Hardware stack levels used:    1
  4976 ;; Hardware stack levels required when called:    4
  4977 ;; This function calls:
  4978 ;;		_setSPI1sendDataManual
  4979 ;; This function is called by:
  4980 ;;		_Calibrate_download
  4981 ;; This function uses a non-reentrant model
  4982 ;;
  4983                           
  4984                           
  4985                           ;psect for function _isEndpoint
  4986  03C7                     _isEndpoint:	
  4987                           
  4988                           ;calibrate_mode.c: 31: unsigned char spi2data = 0;
  4989                           
  4990                           ;incstack = 0
  4991                           ; Regs used in _isEndpoint: [wreg+fsr1l+fsr1h+status,2+status,0+pclath+cstack]
  4992  03C7  0020               	movlb	0	; select bank0
  4993  03C8  01E6               	clrf	isEndpoint@spi2data
  4994                           
  4995                           ;calibrate_mode.c: 32: if(count2 > 1){
  4996  03C9  3000               	movlw	0
  4997  03CA  0256               	subwf	_count2+1,w
  4998  03CB  3002               	movlw	2
  4999  03CC  1903               	skipnz
  5000  03CD  0255               	subwf	_count2,w
  5001  03CE  1C03               	skipc
  5002  03CF  2BE4               	goto	l2236
  5003                           
  5004                           ;calibrate_mode.c: 33: spi2data = spi2_buffer_data[count2 -1];
  5005  03D0  0855               	movf	_count2,w
  5006  03D1  3EFF               	addlw	255
  5007  03D2  00E1               	movwf	??_isEndpoint
  5008  03D3  30FF               	movlw	255
  5009  03D4  3D56               	addwfc	_count2+1,w
  5010  03D5  00E2               	movwf	??_isEndpoint+1
  5011  03D6  30F0               	movlw	240
  5012  03D7  00E3               	movwf	??_isEndpoint+2
  5013  03D8  3025               	movlw	37
  5014  03D9  00E4               	movwf	??_isEndpoint+3
  5015  03DA  0861               	movf	??_isEndpoint,w
  5016  03DB  0763               	addwf	??_isEndpoint+2,w
  5017  03DC  0086               	movwf	6
  5018  03DD  0862               	movf	??_isEndpoint+1,w
  5019  03DE  3D64               	addwfc	??_isEndpoint+3,w
  5020  03DF  0087               	movwf	7
  5021  03E0  0801               	movf	1,w
  5022  03E1  00E5               	movwf	??_isEndpoint+4
  5023  03E2  0865               	movf	??_isEndpoint+4,w
  5024  03E3  2BF1               	goto	L27
  5025  03E4                     l2236:	
  5026                           ;calibrate_mode.c: 34: }else{
  5027                           
  5028                           
  5029                           ;calibrate_mode.c: 35: spi2data = spi2_buffer_data[count2];
  5030  03E4  30F0               	movlw	240
  5031  03E5  00E1               	movwf	??_isEndpoint
  5032  03E6  3025               	movlw	37
  5033  03E7  00E2               	movwf	??_isEndpoint+1
  5034  03E8  0855               	movf	_count2,w
  5035  03E9  0761               	addwf	??_isEndpoint,w
  5036  03EA  0086               	movwf	6
  5037  03EB  0856               	movf	_count2+1,w
  5038  03EC  3D62               	addwfc	??_isEndpoint+1,w
  5039  03ED  0087               	movwf	7
  5040  03EE  0801               	movf	1,w
  5041  03EF  00E3               	movwf	??_isEndpoint+2
  5042  03F0  0863               	movf	??_isEndpoint+2,w
  5043  03F1                     L27:	
  5044  03F1  00E6               	movwf	isEndpoint@spi2data
  5045                           
  5046                           ;calibrate_mode.c: 36: }
  5047                           ;calibrate_mode.c: 37: if(spi2data < 255){
  5048  03F2  0A66               	incf	isEndpoint@spi2data,w
  5049  03F3  1903               	btfsc	3,2
  5050  03F4  2BFA               	goto	l356
  5051                           
  5052                           ;calibrate_mode.c: 38: LATAbits.LATA0 = 1;
  5053  03F5  0022               	movlb	2	; select bank2
  5054  03F6  140C               	bsf	12,0	;volatile
  5055                           
  5056                           ;calibrate_mode.c: 39: isEndPointTrig = 0;
  5057  03F7  0020               	movlb	0	; select bank0
  5058  03F8  106D               	bcf	_isEndPointTrig/(0+8),_isEndPointTrig& (0+7)
  5059                           
  5060                           ;calibrate_mode.c: 40: }else{
  5061  03F9  0008               	return
  5062  03FA                     l356:	
  5063                           
  5064                           ;calibrate_mode.c: 41: LATAbits.LATA0 = 0;
  5065  03FA  0022               	movlb	2	; select bank2
  5066  03FB  100C               	bcf	12,0	;volatile
  5067                           
  5068                           ;calibrate_mode.c: 42: setSPI1sendDataManual(0x00);
  5069  03FC  3000               	movlw	0
  5070  03FD  3186  2606         	fcall	_setSPI1sendDataManual
  5071  03FF  0008               	return
  5072  0400                     __end_of_isEndpoint:	
  5073                           ;calibrate_mode.c: 43: }
  5074                           ;calibrate_mode.c: 44: return isEndPointTrig;
  5075                           ;	Return value of _isEndpoint is never used
  5076                           
  5077                           
  5078                           	psect	text10
  5079  0606                     __ptext10:	
  5080 ;; *************** function _setSPI1sendDataManual *****************
  5081 ;; Defined at:
  5082 ;;		line 103 in file "D:/programdata/16F18346_Link_IC.X/spiControl.c"
  5083 ;; Parameters:    Size  Location     Type
  5084 ;;  data            1    wreg     unsigned char 
  5085 ;; Auto vars:     Size  Location     Type
  5086 ;;  data            1    0[BANK0 ] unsigned char 
  5087 ;; Return value:  Size  Location     Type
  5088 ;;                  1    wreg      void 
  5089 ;; Registers used:
  5090 ;;		wreg
  5091 ;; Tracked objects:
  5092 ;;		On entry : 0/0
  5093 ;;		On exit  : 0/0
  5094 ;;		Unchanged: 0/0
  5095 ;; Data sizes:     COMMON   BANK0   BANK1   BANK2   BANK3   BANK4   BANK5   BANK6   BANK7   BANK8   BANK9  BANK10  BANK1
      +1  BANK12  BANK13  BANK14  BANK15  BANK16  BANK17  BANK18  BANK19  BANK20  BANK21  BANK22  BANK23  BANK24  BANK25
  5096 ;;      Params:         0       0       0       0       0       0       0       0       0       0       0       0       
      +0       0       0       0       0       0       0       0       0       0       0       0       0       0       0
  5097 ;;      Locals:         0       1       0       0       0       0       0       0       0       0       0       0       
      +0       0       0       0       0       0       0       0       0       0       0       0       0       0       0
  5098 ;;      Temps:          0       0       0       0       0       0       0       0       0       0       0       0       
      +0       0       0       0       0       0       0       0       0       0       0       0       0       0       0
  5099 ;;      Totals:         0       1       0       0       0       0       0       0       0       0       0       0       
      +0       0       0       0       0       0       0       0       0       0       0       0       0       0       0
  5100 ;;Total ram usage:        1 bytes
  5101 ;; Hardware stack levels used:    1
  5102 ;; Hardware stack levels required when called:    3
  5103 ;; This function calls:
  5104 ;;		Nothing
  5105 ;; This function is called by:
  5106 ;;		_isEndpoint
  5107 ;; This function uses a non-reentrant model
  5108 ;;
  5109                           
  5110                           
  5111                           ;psect for function _setSPI1sendDataManual
  5112  0606                     _setSPI1sendDataManual:	
  5113                           
  5114                           ;incstack = 0
  5115                           ; Regs used in _setSPI1sendDataManual: [wreg]
  5116                           ;setSPI1sendDataManual@data stored from wreg
  5117  0606  0020               	movlb	0	; select bank0
  5118  0607  00E0               	movwf	setSPI1sendDataManual@data
  5119                           
  5120                           ;spiControl.c: 104: SSP1BUF = data;
  5121  0608  0860               	movf	setSPI1sendDataManual@data,w
  5122  0609  0024               	movlb	4	; select bank4
  5123  060A  0091               	movwf	17	;volatile
  5124  060B  0008               	return
  5125  060C                     __end_of_setSPI1sendDataManual:	
  5126                           
  5127                           	psect	text11
  5128  057A                     __ptext11:	
  5129 ;; *************** function _InitCalibrate *****************
  5130 ;; Defined at:
  5131 ;;		line 62 in file "D:/programdata/16F18346_Link_IC.X/calibrate_mode.c"
  5132 ;; Parameters:    Size  Location     Type
  5133 ;;		None
  5134 ;; Auto vars:     Size  Location     Type
  5135 ;;		None
  5136 ;; Return value:  Size  Location     Type
  5137 ;;                  1    wreg      void 
  5138 ;; Registers used:
  5139 ;;		wreg, status,2
  5140 ;; Tracked objects:
  5141 ;;		On entry : 0/0
  5142 ;;		On exit  : 0/0
  5143 ;;		Unchanged: 0/0
  5144 ;; Data sizes:     COMMON   BANK0   BANK1   BANK2   BANK3   BANK4   BANK5   BANK6   BANK7   BANK8   BANK9  BANK10  BANK1
      +1  BANK12  BANK13  BANK14  BANK15  BANK16  BANK17  BANK18  BANK19  BANK20  BANK21  BANK22  BANK23  BANK24  BANK25
  5145 ;;      Params:         0       0       0       0       0       0       0       0       0       0       0       0       
      +0       0       0       0       0       0       0       0       0       0       0       0       0       0       0
  5146 ;;      Locals:         0       0       0       0       0       0       0       0       0       0       0       0       
      +0       0       0       0       0       0       0       0       0       0       0       0       0       0       0
  5147 ;;      Temps:          0       0       0       0       0       0       0       0       0       0       0       0       
      +0       0       0       0       0       0       0       0       0       0       0       0       0       0       0
  5148 ;;      Totals:         0       0       0       0       0       0       0       0       0       0       0       0       
      +0       0       0       0       0       0       0       0       0       0       0       0       0       0       0
  5149 ;;Total ram usage:        0 bytes
  5150 ;; Hardware stack levels used:    1
  5151 ;; Hardware stack levels required when called:    3
  5152 ;; This function calls:
  5153 ;;		Nothing
  5154 ;; This function is called by:
  5155 ;;		_main
  5156 ;;		_Calibrate_download
  5157 ;; This function uses a non-reentrant model
  5158 ;;
  5159                           
  5160                           
  5161                           ;psect for function _InitCalibrate
  5162  057A                     _InitCalibrate:	
  5163                           
  5164                           ;calibrate_mode.c: 63: isEndPointTrig = 1;
  5165                           
  5166                           ;incstack = 0
  5167                           ; Regs used in _InitCalibrate: [wreg+status,2]
  5168  057A  0020               	movlb	0	; select bank0
  5169  057B  146D               	bsf	_isEndPointTrig/(0+8),_isEndPointTrig& (0+7)
  5170                           
  5171                           ;calibrate_mode.c: 64: calibdata.cargoLength = 0xFFFF;
  5172  057C  30FF               	movlw	255
  5173  057D  00B0               	movwf	_calibdata
  5174  057E  30FF               	movlw	255
  5175  057F  00B1               	movwf	_calibdata+1
  5176                           
  5177                           ;calibrate_mode.c: 65: calibdata.index = 0x00;
  5178  0580  01B3               	clrf	_calibdata+3
  5179                           
  5180                           ;calibrate_mode.c: 66: calibdata.command =0x00;
  5181  0581  01B2               	clrf	_calibdata+2
  5182                           
  5183                           ;calibrate_mode.c: 67: calibdata.WorkingCount = 0;
  5184  0582  3000               	movlw	0
  5185  0583  00B7               	movwf	_calibdata+7
  5186  0584  3000               	movlw	0
  5187  0585  00B6               	movwf	_calibdata+6
  5188  0586  3000               	movlw	0
  5189  0587  00B5               	movwf	_calibdata+5
  5190  0588  3000               	movlw	0
  5191  0589  00B4               	movwf	_calibdata+4
  5192                           
  5193                           ;calibrate_mode.c: 68: linkInfo.endpoint = 0;
  5194  058A  01BE               	clrf	_linkInfo+5
  5195                           
  5196                           ;calibrate_mode.c: 69: linkInfo.My_address = 0;
  5197  058B  01B9               	clrf	_linkInfo
  5198                           
  5199                           ;calibrate_mode.c: 70: countabuf = 0;
  5200  058C  01D1               	clrf	_countabuf
  5201  058D  01D2               	clrf	_countabuf+1
  5202                           
  5203                           ;calibrate_mode.c: 71: isMycargo = 1;
  5204  058E  14ED               	bsf	_isMycargo/(0+8),_isMycargo& (0+7)
  5205  058F  0008               	return
  5206  0590                     __end_of_InitCalibrate:	
  5207                           
  5208                           	psect	text12
  5209  0344                     __ptext12:	
  5210 ;; *************** function _read_train *****************
  5211 ;; Defined at:
  5212 ;;		line 194 in file "D:/programdata/16F18346_Link_IC.X/main.c"
  5213 ;; Parameters:    Size  Location     Type
  5214 ;;		None
  5215 ;; Auto vars:     Size  Location     Type
  5216 ;;  bufint          2    2[BANK0 ] unsigned int 
  5217 ;; Return value:  Size  Location     Type
  5218 ;;                  1    wreg      void 
  5219 ;; Registers used:
  5220 ;;		wreg, fsr0l, fsr0h, status,2, status,0
  5221 ;; Tracked objects:
  5222 ;;		On entry : 0/0
  5223 ;;		On exit  : 0/0
  5224 ;;		Unchanged: 0/0
  5225 ;; Data sizes:     COMMON   BANK0   BANK1   BANK2   BANK3   BANK4   BANK5   BANK6   BANK7   BANK8   BANK9  BANK10  BANK1
      +1  BANK12  BANK13  BANK14  BANK15  BANK16  BANK17  BANK18  BANK19  BANK20  BANK21  BANK22  BANK23  BANK24  BANK25
  5226 ;;      Params:         0       0       0       0       0       0       0       0       0       0       0       0       
      +0       0       0       0       0       0       0       0       0       0       0       0       0       0       0
  5227 ;;      Locals:         0       2       0       0       0       0       0       0       0       0       0       0       
      +0       0       0       0       0       0       0       0       0       0       0       0       0       0       0
  5228 ;;      Temps:          0       2       0       0       0       0       0       0       0       0       0       0       
      +0       0       0       0       0       0       0       0       0       0       0       0       0       0       0
  5229 ;;      Totals:         0       4       0       0       0       0       0       0       0       0       0       0       
      +0       0       0       0       0       0       0       0       0       0       0       0       0       0       0
  5230 ;;Total ram usage:        4 bytes
  5231 ;; Hardware stack levels used:    1
  5232 ;; Hardware stack levels required when called:    3
  5233 ;; This function calls:
  5234 ;;		Nothing
  5235 ;; This function is called by:
  5236 ;;		_main
  5237 ;; This function uses a non-reentrant model
  5238 ;;
  5239                           
  5240                           
  5241                           ;psect for function _read_train
  5242  0344                     _read_train:	
  5243                           
  5244                           ;main.c: 195: unsigned int bufint = spi1_Read_data;
  5245                           
  5246                           ;incstack = 0
  5247                           ; Regs used in _read_train: [wreg-fsr0h+status,2+status,0]
  5248  0344  0020               	movlb	0	; select bank0
  5249  0345  085C               	movf	_spi1_Read_data,w
  5250  0346  00E0               	movwf	??_read_train
  5251  0347  01E1               	clrf	??_read_train+1
  5252  0348  0860               	movf	??_read_train,w
  5253  0349  00E2               	movwf	read_train@bufint
  5254  034A  0861               	movf	??_read_train+1,w
  5255  034B  00E3               	movwf	read_train@bufint+1
  5256                           
  5257                           ;main.c: 196: switch(trainPos){
  5258  034C  2B69               	goto	l2604
  5259  034D                     l2594:	
  5260                           ;main.c: 199: case 1:
  5261                           
  5262                           ;main.c: 198: break;
  5263                           
  5264                           ;main.c: 197: case 0:
  5265                           
  5266                           
  5267                           ;main.c: 200: st_dataLength = (bufint << 8 | 0x00FF);
  5268  034D  0862               	movf	read_train@bufint,w
  5269  034E  00E1               	movwf	??_read_train+1
  5270  034F  01E0               	clrf	??_read_train
  5271  0350  30FF               	movlw	255
  5272  0351  0460               	iorwf	??_read_train,w
  5273  0352  00EE               	movwf	_st_dataLength
  5274  0353  3000               	movlw	0
  5275  0354  0461               	iorwf	??_read_train+1,w
  5276  0355  2B61               	goto	L28
  5277  0356                     l2596:	
  5278                           ;main.c: 202: case 2:
  5279                           
  5280                           ;main.c: 201: break;
  5281                           
  5282                           
  5283                           ;main.c: 203: st_dataLength = st_dataLength & (bufint | 0xFF00);
  5284  0356  3000               	movlw	0
  5285  0357  0462               	iorwf	read_train@bufint,w
  5286  0358  00E0               	movwf	??_read_train
  5287  0359  30FF               	movlw	255
  5288  035A  0463               	iorwf	read_train@bufint+1,w
  5289  035B  00E1               	movwf	??_read_train+1
  5290  035C  086E               	movf	_st_dataLength,w
  5291  035D  0560               	andwf	??_read_train,w
  5292  035E  00EE               	movwf	_st_dataLength
  5293  035F  086F               	movf	_st_dataLength+1,w
  5294  0360  0561               	andwf	??_read_train+1,w
  5295  0361                     L28:	
  5296  0361  00EF               	movwf	_st_dataLength+1
  5297                           
  5298                           ;main.c: 204: break;
  5299  0362  2B7C               	goto	l2606
  5300  0363                     l2598:	
  5301                           ;main.c: 205: case 3:
  5302                           
  5303                           
  5304                           ;main.c: 206: st_type = spi1_Read_data;
  5305  0363  085C               	movf	_spi1_Read_data,w
  5306  0364  00E0               	movwf	??_read_train
  5307  0365  0860               	movf	??_read_train,w
  5308  0366  00DE               	movwf	_st_type
  5309                           
  5310                           ;main.c: 207: isreadTrain = 1;
  5311  0367  1677               	bsf	_isreadTrain/(0+8),_isreadTrain& (0+7)
  5312                           
  5313                           ;main.c: 211: }
  5314                           
  5315                           ;main.c: 210: break;
  5316                           
  5317                           ;main.c: 209: default :
  5318                           
  5319                           ;main.c: 208: break;
  5320  0368  2B7C               	goto	l2606
  5321  0369                     l2604:	
  5322                           
  5323                           ; Switch on 2 bytes has been partitioned into a top level switch of size 1, and 1 sub-sw
      +                          itches
  5324                           ; Switch size 1, requested type "space"
  5325                           ; Number of cases is 1, Range of values is 0 to 0
  5326                           ; switch strategies available:
  5327                           ; Name         Instructions Cycles
  5328                           ; simple_byte            4     3 (average)
  5329                           ; direct_byte            8     6 (fixed)
  5330                           ; jumptable            260     6 (fixed)
  5331                           ;	Chosen strategy is simple_byte
  5332  0369  084E               	movf	_trainPos+1,w
  5333  036A  3A00               	xorlw	0	; case 0
  5334  036B  1903               	skipnz
  5335  036C  2B6E               	goto	l2784
  5336  036D  2B7C               	goto	l2606
  5337  036E                     l2784:	
  5338                           
  5339                           ; Switch size 1, requested type "space"
  5340                           ; Number of cases is 4, Range of values is 0 to 3
  5341                           ; switch strategies available:
  5342                           ; Name         Instructions Cycles
  5343                           ; simple_byte           13     7 (average)
  5344                           ; direct_byte           14     6 (fixed)
  5345                           ; jumptable            260     6 (fixed)
  5346                           ;	Chosen strategy is simple_byte
  5347  036E  084D               	movf	_trainPos,w
  5348  036F  3A00               	xorlw	0	; case 0
  5349  0370  1903               	skipnz
  5350  0371  2B7C               	goto	l2606
  5351  0372  3A01               	xorlw	1	; case 1
  5352  0373  1903               	skipnz
  5353  0374  2B4D               	goto	l2594
  5354  0375  3A03               	xorlw	3	; case 2
  5355  0376  1903               	skipnz
  5356  0377  2B56               	goto	l2596
  5357  0378  3A01               	xorlw	1	; case 3
  5358  0379  1903               	skipnz
  5359  037A  2B63               	goto	l2598
  5360  037B  2B7C               	goto	l2606
  5361  037C                     l2606:	
  5362                           
  5363                           ;main.c: 213: if(read_count1 == 256){
  5364  037C  0354               	decf	_read_count1+1,w
  5365  037D  0453               	iorwf	_read_count1,w
  5366  037E  1D03               	btfss	3,2
  5367  037F  2B82               	goto	l2610
  5368                           
  5369                           ;main.c: 214: read_count1 = 0;
  5370  0380  01D3               	clrf	_read_count1
  5371  0381  01D4               	clrf	_read_count1+1
  5372  0382                     l2610:	
  5373                           
  5374                           ;main.c: 215: }
  5375                           ;main.c: 216: if(read_count2 == 256){
  5376  0382  0350               	decf	_read_count2+1,w
  5377  0383  044F               	iorwf	_read_count2,w
  5378  0384  1D03               	btfss	3,2
  5379  0385  0008               	return
  5380                           
  5381                           ;main.c: 217: read_count2 = 0;
  5382  0386  01CF               	clrf	_read_count2
  5383  0387  01D0               	clrf	_read_count2+1
  5384  0388  0008               	return
  5385  0389                     __end_of_read_train:	
  5386                           
  5387                           	psect	text13
  5388  05B5                     __ptext13:	
  5389 ;; *************** function _isSPI1read *****************
  5390 ;; Defined at:
  5391 ;;		line 67 in file "D:/programdata/16F18346_Link_IC.X/spiControl.c"
  5392 ;; Parameters:    Size  Location     Type
  5393 ;;		None
  5394 ;; Auto vars:     Size  Location     Type
  5395 ;;		None
  5396 ;; Return value:  Size  Location     Type
  5397 ;;		None               void
  5398 ;; Registers used:
  5399 ;;		wreg, status,2, status,0
  5400 ;; Tracked objects:
  5401 ;;		On entry : 0/0
  5402 ;;		On exit  : 0/0
  5403 ;;		Unchanged: 0/0
  5404 ;; Data sizes:     COMMON   BANK0   BANK1   BANK2   BANK3   BANK4   BANK5   BANK6   BANK7   BANK8   BANK9  BANK10  BANK1
      +1  BANK12  BANK13  BANK14  BANK15  BANK16  BANK17  BANK18  BANK19  BANK20  BANK21  BANK22  BANK23  BANK24  BANK25
  5405 ;;      Params:         0       0       0       0       0       0       0       0       0       0       0       0       
      +0       0       0       0       0       0       0       0       0       0       0       0       0       0       0
  5406 ;;      Locals:         0       0       0       0       0       0       0       0       0       0       0       0       
      +0       0       0       0       0       0       0       0       0       0       0       0       0       0       0
  5407 ;;      Temps:          0       0       0       0       0       0       0       0       0       0       0       0       
      +0       0       0       0       0       0       0       0       0       0       0       0       0       0       0
  5408 ;;      Totals:         0       0       0       0       0       0       0       0       0       0       0       0       
      +0       0       0       0       0       0       0       0       0       0       0       0       0       0       0
  5409 ;;Total ram usage:        0 bytes
  5410 ;; Hardware stack levels used:    1
  5411 ;; Hardware stack levels required when called:    3
  5412 ;; This function calls:
  5413 ;;		Nothing
  5414 ;; This function is called by:
  5415 ;;		_main
  5416 ;; This function uses a non-reentrant model
  5417 ;;
  5418                           
  5419                           
  5420                           ;psect for function _isSPI1read
  5421  05B5                     _isSPI1read:	
  5422                           
  5423                           ;spiControl.c: 68: if(read_count1 == count1){
  5424                           
  5425                           ;incstack = 0
  5426                           ; Regs used in _isSPI1read: [wreg+status,2+status,0]
  5427  05B5  0020               	movlb	0	; select bank0
  5428  05B6  0858               	movf	_count1+1,w
  5429  05B7  0654               	xorwf	_read_count1+1,w
  5430  05B8  1D03               	skipz
  5431  05B9  2DBC               	goto	u1005
  5432  05BA  0857               	movf	_count1,w
  5433  05BB  0653               	xorwf	_read_count1,w
  5434  05BC                     u1005:	
  5435  05BC  1D03               	skipz
  5436  05BD  2DC0               	goto	l2560
  5437                           
  5438                           ;spiControl.c: 69: return 1;
  5439  05BE  1403               	setc
  5440                           
  5441                           ;spiControl.c: 70: }else{
  5442  05BF  0008               	return
  5443  05C0                     l2560:	
  5444                           
  5445                           ;spiControl.c: 71: return 0;
  5446  05C0  1003               	clrc
  5447  05C1  0008               	return
  5448  05C2                     __end_of_isSPI1read:	
  5449                           
  5450                           	psect	text14
  5451  060C                     __ptext14:	
  5452 ;; *************** function _io_init *****************
  5453 ;; Defined at:
  5454 ;;		line 124 in file "D:/programdata/16F18346_Link_IC.X/main.c"
  5455 ;; Parameters:    Size  Location     Type
  5456 ;;		None
  5457 ;; Auto vars:     Size  Location     Type
  5458 ;;		None
  5459 ;; Return value:  Size  Location     Type
  5460 ;;                  1    wreg      void 
  5461 ;; Registers used:
  5462 ;;		None
  5463 ;; Tracked objects:
  5464 ;;		On entry : 0/0
  5465 ;;		On exit  : 0/0
  5466 ;;		Unchanged: 0/0
  5467 ;; Data sizes:     COMMON   BANK0   BANK1   BANK2   BANK3   BANK4   BANK5   BANK6   BANK7   BANK8   BANK9  BANK10  BANK1
      +1  BANK12  BANK13  BANK14  BANK15  BANK16  BANK17  BANK18  BANK19  BANK20  BANK21  BANK22  BANK23  BANK24  BANK25
  5468 ;;      Params:         0       0       0       0       0       0       0       0       0       0       0       0       
      +0       0       0       0       0       0       0       0       0       0       0       0       0       0       0
  5469 ;;      Locals:         0       0       0       0       0       0       0       0       0       0       0       0       
      +0       0       0       0       0       0       0       0       0       0       0       0       0       0       0
  5470 ;;      Temps:          0       0       0       0       0       0       0       0       0       0       0       0       
      +0       0       0       0       0       0       0       0       0       0       0       0       0       0       0
  5471 ;;      Totals:         0       0       0       0       0       0       0       0       0       0       0       0       
      +0       0       0       0       0       0       0       0       0       0       0       0       0       0       0
  5472 ;;Total ram usage:        0 bytes
  5473 ;; Hardware stack levels used:    1
  5474 ;; Hardware stack levels required when called:    3
  5475 ;; This function calls:
  5476 ;;		Nothing
  5477 ;; This function is called by:
  5478 ;;		_main
  5479 ;; This function uses a non-reentrant model
  5480 ;;
  5481                           
  5482                           
  5483                           ;psect for function _io_init
  5484  060C                     _io_init:	
  5485                           
  5486                           ;main.c: 125: PIE0bits.IOCIE = 1;
  5487                           
  5488                           ;incstack = 0
  5489                           ; Regs used in _io_init: []
  5490  060C  0021               	movlb	1	; select bank1
  5491  060D  1610               	bsf	16,4	;volatile
  5492                           
  5493                           ;main.c: 126: PIE0bits.INTE = 1;
  5494  060E  1410               	bsf	16,0	;volatile
  5495                           
  5496                           ;main.c: 127: INTCONbits.INTEDG = 1;
  5497  060F  140B               	bsf	11,0	;volatile
  5498  0610  0008               	return
  5499  0611                     __end_of_io_init:	
  5500                           
  5501                           	psect	text15
  5502  02FC                     __ptext15:	
  5503 ;; *************** function _initTrain *****************
  5504 ;; Defined at:
  5505 ;;		line 130 in file "D:/programdata/16F18346_Link_IC.X/main.c"
  5506 ;; Parameters:    Size  Location     Type
  5507 ;;		None
  5508 ;; Auto vars:     Size  Location     Type
  5509 ;;		None
  5510 ;; Return value:  Size  Location     Type
  5511 ;;                  1    wreg      void 
  5512 ;; Registers used:
  5513 ;;		wreg, fsr1l, fsr1h, status,2, status,0, pclath, cstack
  5514 ;; Tracked objects:
  5515 ;;		On entry : 0/0
  5516 ;;		On exit  : 0/0
  5517 ;;		Unchanged: 0/0
  5518 ;; Data sizes:     COMMON   BANK0   BANK1   BANK2   BANK3   BANK4   BANK5   BANK6   BANK7   BANK8   BANK9  BANK10  BANK1
      +1  BANK12  BANK13  BANK14  BANK15  BANK16  BANK17  BANK18  BANK19  BANK20  BANK21  BANK22  BANK23  BANK24  BANK25
  5519 ;;      Params:         0       0       0       0       0       0       0       0       0       0       0       0       
      +0       0       0       0       0       0       0       0       0       0       0       0       0       0       0
  5520 ;;      Locals:         0       0       0       0       0       0       0       0       0       0       0       0       
      +0       0       0       0       0       0       0       0       0       0       0       0       0       0       0
  5521 ;;      Temps:          0       3       0       0       0       0       0       0       0       0       0       0       
      +0       0       0       0       0       0       0       0       0       0       0       0       0       0       0
  5522 ;;      Totals:         0       3       0       0       0       0       0       0       0       0       0       0       
      +0       0       0       0       0       0       0       0       0       0       0       0       0       0       0
  5523 ;;Total ram usage:        3 bytes
  5524 ;; Hardware stack levels used:    1
  5525 ;; Hardware stack levels required when called:    5
  5526 ;; This function calls:
  5527 ;;		_isTrainSt
  5528 ;;		_resetTrainData
  5529 ;; This function is called by:
  5530 ;;		_main
  5531 ;; This function uses a non-reentrant model
  5532 ;;
  5533                           
  5534                           
  5535                           ;psect for function _initTrain
  5536  02FC                     _initTrain:	
  5537                           
  5538                           ;main.c: 131: spi1_Read_data = spi1_buffer_data[read_count1];
  5539                           
  5540                           ;incstack = 0
  5541                           ; Regs used in _initTrain: [wreg+fsr1l+fsr1h+status,2+status,0+pclath+cstack]
  5542  02FC  30F0               	movlw	240
  5543  02FD  0020               	movlb	0	; select bank0
  5544  02FE  00E9               	movwf	??_initTrain
  5545  02FF  3026               	movlw	38
  5546  0300  00EA               	movwf	??_initTrain+1
  5547  0301  0853               	movf	_read_count1,w
  5548  0302  0769               	addwf	??_initTrain,w
  5549  0303  0086               	movwf	6
  5550  0304  0854               	movf	_read_count1+1,w
  5551  0305  3D6A               	addwfc	??_initTrain+1,w
  5552  0306  0087               	movwf	7
  5553  0307  0801               	movf	1,w
  5554  0308  00EB               	movwf	??_initTrain+2
  5555  0309  086B               	movf	??_initTrain+2,w
  5556  030A  00DC               	movwf	_spi1_Read_data
  5557                           
  5558                           ;main.c: 132: spi2_Send_data = spi1_Read_data;
  5559  030B  085C               	movf	_spi1_Read_data,w
  5560  030C  00E9               	movwf	??_initTrain
  5561  030D  0869               	movf	??_initTrain,w
  5562  030E  00DF               	movwf	_spi2_Send_data
  5563                           
  5564                           ;main.c: 133: read_count1++;
  5565  030F  3001               	movlw	1
  5566  0310  07D3               	addwf	_read_count1,f
  5567  0311  3000               	movlw	0
  5568  0312  3DD4               	addwfc	_read_count1+1,f
  5569                           
  5570                           ;main.c: 134: if(isTrainSt(spi1_Read_data)){
  5571  0313  085C               	movf	_spi1_Read_data,w
  5572  0314  3184  2400  3182   	fcall	_isTrainSt
  5573  0317  1C03               	btfss	3,0
  5574  0318  2B2A               	goto	l2520
  5575                           
  5576                           ;main.c: 135: LATAbits.LATA0 = 0;
  5577  0319  0022               	movlb	2	; select bank2
  5578  031A  100C               	bcf	12,0	;volatile
  5579                           
  5580                           ;main.c: 136: trainPos = 0;
  5581  031B  0020               	movlb	0	; select bank0
  5582  031C  01CD               	clrf	_trainPos
  5583  031D  01CE               	clrf	_trainPos+1
  5584                           
  5585                           ;main.c: 137: read_count1 = 0;
  5586  031E  01D3               	clrf	_read_count1
  5587  031F  01D4               	clrf	_read_count1+1
  5588                           
  5589                           ;main.c: 138: resetTrainData();
  5590  0320  3185  25FD  3182   	fcall	_resetTrainData
  5591                           
  5592                           ;main.c: 139: isreadTrain = 0;
  5593  0323  1277               	bcf	_isreadTrain/(0+8),_isreadTrain& (0+7)
  5594                           
  5595                           ;main.c: 140: count1 = 0;
  5596  0324  0020               	movlb	0	; select bank0
  5597  0325  01D7               	clrf	_count1
  5598  0326  01D8               	clrf	_count1+1
  5599                           
  5600                           ;main.c: 141: countabuf = 0;
  5601  0327  01D1               	clrf	_countabuf
  5602  0328  01D2               	clrf	_countabuf+1
  5603                           
  5604                           ;main.c: 142: }else{
  5605  0329  2B2F               	goto	l123
  5606  032A                     l2520:	
  5607                           
  5608                           ;main.c: 143: trainPos++;
  5609  032A  3001               	movlw	1
  5610  032B  0020               	movlb	0	; select bank0
  5611  032C  07CD               	addwf	_trainPos,f
  5612  032D  3000               	movlw	0
  5613  032E  3DCE               	addwfc	_trainPos+1,f
  5614  032F                     l123:	
  5615                           
  5616                           ;main.c: 144: }
  5617                           ;main.c: 145: if(st_dataLength < trainPos){
  5618  032F  084E               	movf	_trainPos+1,w
  5619  0330  026F               	subwf	_st_dataLength+1,w
  5620  0331  1D03               	skipz
  5621  0332  2B35               	goto	u995
  5622  0333  084D               	movf	_trainPos,w
  5623  0334  026E               	subwf	_st_dataLength,w
  5624  0335                     u995:	
  5625  0335  1803               	skipnc
  5626  0336  0008               	return
  5627                           
  5628                           ;main.c: 146: trainPos = 0;
  5629  0337  01CD               	clrf	_trainPos
  5630  0338  01CE               	clrf	_trainPos+1
  5631                           
  5632                           ;main.c: 147: read_count1 = 0;
  5633  0339  01D3               	clrf	_read_count1
  5634  033A  01D4               	clrf	_read_count1+1
  5635                           
  5636                           ;main.c: 148: resetTrainData();
  5637  033B  3185  25FD         	fcall	_resetTrainData
  5638                           
  5639                           ;main.c: 149: isreadTrain = 0;
  5640  033D  1277               	bcf	_isreadTrain/(0+8),_isreadTrain& (0+7)
  5641                           
  5642                           ;main.c: 150: count1 = 0;
  5643  033E  0020               	movlb	0	; select bank0
  5644  033F  01D7               	clrf	_count1
  5645  0340  01D8               	clrf	_count1+1
  5646                           
  5647                           ;main.c: 151: countabuf = 0;
  5648  0341  01D1               	clrf	_countabuf
  5649  0342  01D2               	clrf	_countabuf+1
  5650  0343  0008               	return
  5651  0344                     __end_of_initTrain:	
  5652                           
  5653                           	psect	text16
  5654  05FD                     __ptext16:	
  5655 ;; *************** function _resetTrainData *****************
  5656 ;; Defined at:
  5657 ;;		line 176 in file "D:/programdata/16F18346_Link_IC.X/main.c"
  5658 ;; Parameters:    Size  Location     Type
  5659 ;;		None
  5660 ;; Auto vars:     Size  Location     Type
  5661 ;;		None
  5662 ;; Return value:  Size  Location     Type
  5663 ;;                  1    wreg      void 
  5664 ;; Registers used:
  5665 ;;		wreg, status,2, status,0, pclath, cstack
  5666 ;; Tracked objects:
  5667 ;;		On entry : 0/0
  5668 ;;		On exit  : 0/0
  5669 ;;		Unchanged: 0/0
  5670 ;; Data sizes:     COMMON   BANK0   BANK1   BANK2   BANK3   BANK4   BANK5   BANK6   BANK7   BANK8   BANK9  BANK10  BANK1
      +1  BANK12  BANK13  BANK14  BANK15  BANK16  BANK17  BANK18  BANK19  BANK20  BANK21  BANK22  BANK23  BANK24  BANK25
  5671 ;;      Params:         0       0       0       0       0       0       0       0       0       0       0       0       
      +0       0       0       0       0       0       0       0       0       0       0       0       0       0       0
  5672 ;;      Locals:         0       0       0       0       0       0       0       0       0       0       0       0       
      +0       0       0       0       0       0       0       0       0       0       0       0       0       0       0
  5673 ;;      Temps:          0       0       0       0       0       0       0       0       0       0       0       0       
      +0       0       0       0       0       0       0       0       0       0       0       0       0       0       0
  5674 ;;      Totals:         0       0       0       0       0       0       0       0       0       0       0       0       
      +0       0       0       0       0       0       0       0       0       0       0       0       0       0       0
  5675 ;;Total ram usage:        0 bytes
  5676 ;; Hardware stack levels used:    1
  5677 ;; Hardware stack levels required when called:    4
  5678 ;; This function calls:
  5679 ;;		_restartCargo
  5680 ;; This function is called by:
  5681 ;;		_initTrain
  5682 ;; This function uses a non-reentrant model
  5683 ;;
  5684                           
  5685                           
  5686                           ;psect for function _resetTrainData
  5687  05FD                     _resetTrainData:	
  5688                           
  5689                           ;main.c: 177: st_dataLength = 0xFFFF;
  5690                           
  5691                           ;incstack = 0
  5692                           ; Regs used in _resetTrainData: [wreg+status,2+status,0+pclath+cstack]
  5693  05FD  30FF               	movlw	255
  5694  05FE  0020               	movlb	0	; select bank0
  5695  05FF  00EE               	movwf	_st_dataLength
  5696  0600  30FF               	movlw	255
  5697  0601  00EF               	movwf	_st_dataLength+1
  5698                           
  5699                           ;main.c: 178: st_type = 0;
  5700  0602  01DE               	clrf	_st_type
  5701                           
  5702                           ;main.c: 179: restartCargo();
  5703  0603  3185  25A4         	fcall	_restartCargo
  5704  0605  0008               	return
  5705  0606                     __end_of_resetTrainData:	
  5706                           
  5707                           	psect	text17
  5708  05A4                     __ptext17:	
  5709 ;; *************** function _restartCargo *****************
  5710 ;; Defined at:
  5711 ;;		line 37 in file "D:/programdata/16F18346_Link_IC.X/normal_mode.c"
  5712 ;; Parameters:    Size  Location     Type
  5713 ;;		None
  5714 ;; Auto vars:     Size  Location     Type
  5715 ;;		None
  5716 ;; Return value:  Size  Location     Type
  5717 ;;                  1    wreg      void 
  5718 ;; Registers used:
  5719 ;;		wreg, status,2
  5720 ;; Tracked objects:
  5721 ;;		On entry : 0/0
  5722 ;;		On exit  : 0/0
  5723 ;;		Unchanged: 0/0
  5724 ;; Data sizes:     COMMON   BANK0   BANK1   BANK2   BANK3   BANK4   BANK5   BANK6   BANK7   BANK8   BANK9  BANK10  BANK1
      +1  BANK12  BANK13  BANK14  BANK15  BANK16  BANK17  BANK18  BANK19  BANK20  BANK21  BANK22  BANK23  BANK24  BANK25
  5725 ;;      Params:         0       0       0       0       0       0       0       0       0       0       0       0       
      +0       0       0       0       0       0       0       0       0       0       0       0       0       0       0
  5726 ;;      Locals:         0       0       0       0       0       0       0       0       0       0       0       0       
      +0       0       0       0       0       0       0       0       0       0       0       0       0       0       0
  5727 ;;      Temps:          0       0       0       0       0       0       0       0       0       0       0       0       
      +0       0       0       0       0       0       0       0       0       0       0       0       0       0       0
  5728 ;;      Totals:         0       0       0       0       0       0       0       0       0       0       0       0       
      +0       0       0       0       0       0       0       0       0       0       0       0       0       0       0
  5729 ;;Total ram usage:        0 bytes
  5730 ;; Hardware stack levels used:    1
  5731 ;; Hardware stack levels required when called:    3
  5732 ;; This function calls:
  5733 ;;		Nothing
  5734 ;; This function is called by:
  5735 ;;		_resetTrainData
  5736 ;;		_readCargo
  5737 ;; This function uses a non-reentrant model
  5738 ;;
  5739                           
  5740                           
  5741                           ;psect for function _restartCargo
  5742  05A4                     _restartCargo:	
  5743                           
  5744                           ;normal_mode.c: 38: cargoData.WorkingCount = 0;
  5745                           
  5746                           ;incstack = 0
  5747                           ; Regs used in _restartCargo: [wreg+status,2]
  5748  05A4  3000               	movlw	0
  5749  05A5  0020               	movlb	0	; select bank0
  5750  05A6  00AF               	movwf	_cargoData+15
  5751  05A7  3000               	movlw	0
  5752  05A8  00AE               	movwf	_cargoData+14
  5753  05A9  3000               	movlw	0
  5754  05AA  00AD               	movwf	_cargoData+13
  5755  05AB  3000               	movlw	0
  5756  05AC  00AC               	movwf	_cargoData+12
  5757                           
  5758                           ;normal_mode.c: 39: cargoData.address = 0;
  5759  05AD  01A4               	clrf	_cargoData+4
  5760                           
  5761                           ;normal_mode.c: 40: cargoData.cargoLength = 0xFFFF;
  5762  05AE  30FF               	movlw	255
  5763  05AF  00A0               	movwf	_cargoData
  5764  05B0  30FF               	movlw	255
  5765  05B1  00A1               	movwf	_cargoData+1
  5766                           
  5767                           ;normal_mode.c: 41: cargoData.command = 0;
  5768  05B2  01A2               	clrf	_cargoData+2
  5769                           
  5770                           ;normal_mode.c: 42: cargoData.index = 0;
  5771  05B3  01A3               	clrf	_cargoData+3
  5772  05B4  0008               	return
  5773  05B5                     __end_of_restartCargo:	
  5774                           
  5775                           	psect	text18
  5776  0400                     __ptext18:	
  5777 ;; *************** function _isTrainSt *****************
  5778 ;; Defined at:
  5779 ;;		line 182 in file "D:/programdata/16F18346_Link_IC.X/main.c"
  5780 ;; Parameters:    Size  Location     Type
  5781 ;;  buf             1    wreg     unsigned char 
  5782 ;; Auto vars:     Size  Location     Type
  5783 ;;  buf             1    8[BANK0 ] unsigned char 
  5784 ;; Return value:  Size  Location     Type
  5785 ;;		None               void
  5786 ;; Registers used:
  5787 ;;		wreg, status,2, status,0
  5788 ;; Tracked objects:
  5789 ;;		On entry : 0/0
  5790 ;;		On exit  : 0/0
  5791 ;;		Unchanged: 0/0
  5792 ;; Data sizes:     COMMON   BANK0   BANK1   BANK2   BANK3   BANK4   BANK5   BANK6   BANK7   BANK8   BANK9  BANK10  BANK1
      +1  BANK12  BANK13  BANK14  BANK15  BANK16  BANK17  BANK18  BANK19  BANK20  BANK21  BANK22  BANK23  BANK24  BANK25
  5793 ;;      Params:         0       0       0       0       0       0       0       0       0       0       0       0       
      +0       0       0       0       0       0       0       0       0       0       0       0       0       0       0
  5794 ;;      Locals:         0       1       0       0       0       0       0       0       0       0       0       0       
      +0       0       0       0       0       0       0       0       0       0       0       0       0       0       0
  5795 ;;      Temps:          0       8       0       0       0       0       0       0       0       0       0       0       
      +0       0       0       0       0       0       0       0       0       0       0       0       0       0       0
  5796 ;;      Totals:         0       9       0       0       0       0       0       0       0       0       0       0       
      +0       0       0       0       0       0       0       0       0       0       0       0       0       0       0
  5797 ;;Total ram usage:        9 bytes
  5798 ;; Hardware stack levels used:    1
  5799 ;; Hardware stack levels required when called:    3
  5800 ;; This function calls:
  5801 ;;		Nothing
  5802 ;; This function is called by:
  5803 ;;		_initTrain
  5804 ;; This function uses a non-reentrant model
  5805 ;;
  5806                           
  5807                           
  5808                           ;psect for function _isTrainSt
  5809  0400                     _isTrainSt:	
  5810                           
  5811                           ;incstack = 0
  5812                           ; Regs used in _isTrainSt: [wreg+status,2+status,0]
  5813                           ;isTrainSt@buf stored from wreg
  5814  0400  0020               	movlb	0	; select bank0
  5815  0401  00E8               	movwf	isTrainSt@buf
  5816                           
  5817                           ;main.c: 183: startTrainBytes = startTrainBytes << 8 | buf;
  5818  0402  0868               	movf	isTrainSt@buf,w
  5819  0403  00E0               	movwf	??_isTrainSt
  5820  0404  01E1               	clrf	??_isTrainSt+1
  5821  0405  01E2               	clrf	??_isTrainSt+2
  5822  0406  01E3               	clrf	??_isTrainSt+3
  5823  0407  083F               	movf	_startTrainBytes,w
  5824  0408  00E4               	movwf	??_isTrainSt+4
  5825  0409  0840               	movf	_startTrainBytes+1,w
  5826  040A  00E5               	movwf	??_isTrainSt+5
  5827  040B  0841               	movf	_startTrainBytes+2,w
  5828  040C  00E6               	movwf	??_isTrainSt+6
  5829  040D  0842               	movf	_startTrainBytes+3,w
  5830  040E  00E7               	movwf	??_isTrainSt+7
  5831  040F  3008               	movlw	8
  5832  0410                     u845:	
  5833  0410  35E4               	lslf	??_isTrainSt+4,f
  5834  0411  0DE5               	rlf	??_isTrainSt+5,f
  5835  0412  0DE6               	rlf	??_isTrainSt+6,f
  5836  0413  0DE7               	rlf	??_isTrainSt+7,f
  5837  0414  0B89               	decfsz	9,f
  5838  0415  2C10               	goto	u845
  5839  0416  0864               	movf	??_isTrainSt+4,w
  5840  0417  04E0               	iorwf	??_isTrainSt,f
  5841  0418  0865               	movf	??_isTrainSt+5,w
  5842  0419  04E1               	iorwf	??_isTrainSt+1,f
  5843  041A  0866               	movf	??_isTrainSt+6,w
  5844  041B  04E2               	iorwf	??_isTrainSt+2,f
  5845  041C  0867               	movf	??_isTrainSt+7,w
  5846  041D  04E3               	iorwf	??_isTrainSt+3,f
  5847  041E  0863               	movf	??_isTrainSt+3,w
  5848  041F  00C2               	movwf	_startTrainBytes+3
  5849  0420  0862               	movf	??_isTrainSt+2,w
  5850  0421  00C1               	movwf	_startTrainBytes+2
  5851  0422  0861               	movf	??_isTrainSt+1,w
  5852  0423  00C0               	movwf	_startTrainBytes+1
  5853  0424  0860               	movf	??_isTrainSt,w
  5854  0425  00BF               	movwf	_startTrainBytes
  5855                           
  5856                           ;main.c: 184: if(startTrainBytes == 0xFFFFFFFF){
  5857  0426  0A3F               	incf	_startTrainBytes,w
  5858  0427  1D03               	skipz
  5859  0428  2C34               	goto	l2268
  5860  0429  0A40               	incf	_startTrainBytes+1,w
  5861  042A  1D03               	skipz
  5862  042B  2C34               	goto	l2268
  5863  042C  0A41               	incf	_startTrainBytes+2,w
  5864  042D  1D03               	skipz
  5865  042E  2C34               	goto	l2268
  5866  042F  0A42               	incf	_startTrainBytes+3,w
  5867  0430  1D03               	btfss	3,2
  5868  0431  2C34               	goto	l2268
  5869                           
  5870                           ;main.c: 185: return 1;
  5871  0432  1403               	setc
  5872                           
  5873                           ;main.c: 186: }else{
  5874  0433  0008               	return
  5875  0434                     l2268:	
  5876                           
  5877                           ;main.c: 187: return 0;
  5878  0434  1003               	clrc
  5879  0435  0008               	return
  5880  0436                     __end_of_isTrainSt:	
  5881                           
  5882                           	psect	text19
  5883  0222                     __ptext19:	
  5884 ;; *************** function _initComu_types *****************
  5885 ;; Defined at:
  5886 ;;		line 18 in file "D:/programdata/16F18346_Link_IC.X/comu_type.c"
  5887 ;; Parameters:    Size  Location     Type
  5888 ;;		None
  5889 ;; Auto vars:     Size  Location     Type
  5890 ;;		None
  5891 ;; Return value:  Size  Location     Type
  5892 ;;                  1    wreg      void 
  5893 ;; Registers used:
  5894 ;;		wreg
  5895 ;; Tracked objects:
  5896 ;;		On entry : 0/0
  5897 ;;		On exit  : 0/0
  5898 ;;		Unchanged: 0/0
  5899 ;; Data sizes:     COMMON   BANK0   BANK1   BANK2   BANK3   BANK4   BANK5   BANK6   BANK7   BANK8   BANK9  BANK10  BANK1
      +1  BANK12  BANK13  BANK14  BANK15  BANK16  BANK17  BANK18  BANK19  BANK20  BANK21  BANK22  BANK23  BANK24  BANK25
  5900 ;;      Params:         0       0       0       0       0       0       0       0       0       0       0       0       
      +0       0       0       0       0       0       0       0       0       0       0       0       0       0       0
  5901 ;;      Locals:         0       0       0       0       0       0       0       0       0       0       0       0       
      +0       0       0       0       0       0       0       0       0       0       0       0       0       0       0
  5902 ;;      Temps:          0       1       0       0       0       0       0       0       0       0       0       0       
      +0       0       0       0       0       0       0       0       0       0       0       0       0       0       0
  5903 ;;      Totals:         0       1       0       0       0       0       0       0       0       0       0       0       
      +0       0       0       0       0       0       0       0       0       0       0       0       0       0       0
  5904 ;;Total ram usage:        1 bytes
  5905 ;; Hardware stack levels used:    1
  5906 ;; Hardware stack levels required when called:    3
  5907 ;; This function calls:
  5908 ;;		Nothing
  5909 ;; This function is called by:
  5910 ;;		_main
  5911 ;; This function uses a non-reentrant model
  5912 ;;
  5913                           
  5914                           
  5915                           ;psect for function _initComu_types
  5916  0222                     _initComu_types:	
  5917                           
  5918                           ;comu_type.c: 19: comu_types[0] = 0b00111111;
  5919                           
  5920                           ;incstack = 0
  5921                           ; Regs used in _initComu_types: [wreg]
  5922  0222  303F               	movlw	63
  5923  0223  0020               	movlb	0	; select bank0
  5924  0224  00E0               	movwf	??_initComu_types
  5925  0225  0860               	movf	??_initComu_types,w
  5926  0226  0021               	movlb	1	; select bank1
  5927  0227  00A0               	movwf	_comu_types^(0+128)
  5928                           
  5929                           ;comu_type.c: 20: comu_types[1] = 0b01111111;
  5930  0228  307F               	movlw	127
  5931  0229  0020               	movlb	0	; select bank0
  5932  022A  00E0               	movwf	??_initComu_types
  5933  022B  0860               	movf	??_initComu_types,w
  5934  022C  0021               	movlb	1	; select bank1
  5935  022D  00A1               	movwf	(_comu_types^(0+128)+1)
  5936                           
  5937                           ;comu_type.c: 21: comu_types[2] = 0b10011111;
  5938  022E  309F               	movlw	159
  5939  022F  0020               	movlb	0	; select bank0
  5940  0230  00E0               	movwf	??_initComu_types
  5941  0231  0860               	movf	??_initComu_types,w
  5942  0232  0021               	movlb	1	; select bank1
  5943  0233  00A2               	movwf	(_comu_types^(0+128)+2)
  5944                           
  5945                           ;comu_type.c: 22: comu_types[3] = 0b10101111;
  5946  0234  30AF               	movlw	175
  5947  0235  0020               	movlb	0	; select bank0
  5948  0236  00E0               	movwf	??_initComu_types
  5949  0237  0860               	movf	??_initComu_types,w
  5950  0238  0021               	movlb	1	; select bank1
  5951  0239  00A3               	movwf	(_comu_types^(0+128)+3)
  5952                           
  5953                           ;comu_type.c: 23: comu_types[4] = 0b10111111;
  5954  023A  30BF               	movlw	191
  5955  023B  0020               	movlb	0	; select bank0
  5956  023C  00E0               	movwf	??_initComu_types
  5957  023D  0860               	movf	??_initComu_types,w
  5958  023E  0021               	movlb	1	; select bank1
  5959  023F  00A4               	movwf	(_comu_types^(0+128)+4)
  5960                           
  5961                           ;comu_type.c: 24: comu_types[5] = 0b11001111;
  5962  0240  30CF               	movlw	207
  5963  0241  0020               	movlb	0	; select bank0
  5964  0242  00E0               	movwf	??_initComu_types
  5965  0243  0860               	movf	??_initComu_types,w
  5966  0244  0021               	movlb	1	; select bank1
  5967  0245  00A5               	movwf	(_comu_types^(0+128)+5)
  5968                           
  5969                           ;comu_type.c: 25: comu_types[6] = 0b11010111;
  5970  0246  30D7               	movlw	215
  5971  0247  0020               	movlb	0	; select bank0
  5972  0248  00E0               	movwf	??_initComu_types
  5973  0249  0860               	movf	??_initComu_types,w
  5974  024A  0021               	movlb	1	; select bank1
  5975  024B  00A6               	movwf	(_comu_types^(0+128)+6)
  5976                           
  5977                           ;comu_type.c: 26: comu_types[7] = 0b11011111;
  5978  024C  30DF               	movlw	223
  5979  024D  0020               	movlb	0	; select bank0
  5980  024E  00E0               	movwf	??_initComu_types
  5981  024F  0860               	movf	??_initComu_types,w
  5982  0250  0021               	movlb	1	; select bank1
  5983  0251  00A7               	movwf	(_comu_types^(0+128)+7)
  5984                           
  5985                           ;comu_type.c: 27: comu_types[8] = 0b11100111;
  5986  0252  30E7               	movlw	231
  5987  0253  0020               	movlb	0	; select bank0
  5988  0254  00E0               	movwf	??_initComu_types
  5989  0255  0860               	movf	??_initComu_types,w
  5990  0256  0021               	movlb	1	; select bank1
  5991  0257  00A8               	movwf	(_comu_types^(0+128)+8)
  5992                           
  5993                           ;comu_type.c: 28: comu_types[9] = 0b11101011;
  5994  0258  30EB               	movlw	235
  5995  0259  0020               	movlb	0	; select bank0
  5996  025A  00E0               	movwf	??_initComu_types
  5997  025B  0860               	movf	??_initComu_types,w
  5998  025C  0021               	movlb	1	; select bank1
  5999  025D  00A9               	movwf	(_comu_types^(0+128)+9)
  6000                           
  6001                           ;comu_type.c: 29: comu_types[10] = 0b11101111;
  6002  025E  30EF               	movlw	239
  6003  025F  0020               	movlb	0	; select bank0
  6004  0260  00E0               	movwf	??_initComu_types
  6005  0261  0860               	movf	??_initComu_types,w
  6006  0262  0021               	movlb	1	; select bank1
  6007  0263  00AA               	movwf	(_comu_types^(0+128)+10)
  6008                           
  6009                           ;comu_type.c: 30: comu_types[11] = 0b11110001;
  6010  0264  30F1               	movlw	241
  6011  0265  0020               	movlb	0	; select bank0
  6012  0266  00E0               	movwf	??_initComu_types
  6013  0267  0860               	movf	??_initComu_types,w
  6014  0268  0021               	movlb	1	; select bank1
  6015  0269  00AB               	movwf	(_comu_types^(0+128)+11)
  6016                           
  6017                           ;comu_type.c: 31: comu_types[12] = 0b11110011;
  6018  026A  30F3               	movlw	243
  6019  026B  0020               	movlb	0	; select bank0
  6020  026C  00E0               	movwf	??_initComu_types
  6021  026D  0860               	movf	??_initComu_types,w
  6022  026E  0021               	movlb	1	; select bank1
  6023  026F  00AC               	movwf	(_comu_types^(0+128)+12)
  6024                           
  6025                           ;comu_type.c: 32: comu_types[13] = 0b11110101;
  6026  0270  30F5               	movlw	245
  6027  0271  0020               	movlb	0	; select bank0
  6028  0272  00E0               	movwf	??_initComu_types
  6029  0273  0860               	movf	??_initComu_types,w
  6030  0274  0021               	movlb	1	; select bank1
  6031  0275  00AD               	movwf	(_comu_types^(0+128)+13)
  6032                           
  6033                           ;comu_type.c: 33: comu_types[14] = 0b11110111;
  6034  0276  30F7               	movlw	247
  6035  0277  0020               	movlb	0	; select bank0
  6036  0278  00E0               	movwf	??_initComu_types
  6037  0279  0860               	movf	??_initComu_types,w
  6038  027A  0021               	movlb	1	; select bank1
  6039  027B  00AE               	movwf	(_comu_types^(0+128)+14)
  6040                           
  6041                           ;comu_type.c: 34: comu_types[15] = 0b11111000;
  6042  027C  30F8               	movlw	248
  6043  027D  0020               	movlb	0	; select bank0
  6044  027E  00E0               	movwf	??_initComu_types
  6045  027F  0860               	movf	??_initComu_types,w
  6046  0280  0021               	movlb	1	; select bank1
  6047  0281  00AF               	movwf	(_comu_types^(0+128)+15)
  6048                           
  6049                           ;comu_type.c: 35: comu_types[16] = 0b11111001;
  6050  0282  30F9               	movlw	249
  6051  0283  0020               	movlb	0	; select bank0
  6052  0284  00E0               	movwf	??_initComu_types
  6053  0285  0860               	movf	??_initComu_types,w
  6054  0286  0021               	movlb	1	; select bank1
  6055  0287  00B0               	movwf	(_comu_types^(0+128)+16)
  6056                           
  6057                           ;comu_type.c: 36: comu_types[17] = 0b11111010;
  6058  0288  30FA               	movlw	250
  6059  0289  0020               	movlb	0	; select bank0
  6060  028A  00E0               	movwf	??_initComu_types
  6061  028B  0860               	movf	??_initComu_types,w
  6062  028C  0021               	movlb	1	; select bank1
  6063  028D  00B1               	movwf	(_comu_types^(0+128)+17)
  6064  028E  0008               	return
  6065  028F                     __end_of_initComu_types:	
  6066                           
  6067                           	psect	text20
  6068  028F                     __ptext20:	
  6069 ;; *************** function _initComand *****************
  6070 ;; Defined at:
  6071 ;;		line 15 in file "D:/programdata/16F18346_Link_IC.X/command.c"
  6072 ;; Parameters:    Size  Location     Type
  6073 ;;		None
  6074 ;; Auto vars:     Size  Location     Type
  6075 ;;		None
  6076 ;; Return value:  Size  Location     Type
  6077 ;;                  1    wreg      void 
  6078 ;; Registers used:
  6079 ;;		wreg
  6080 ;; Tracked objects:
  6081 ;;		On entry : 0/0
  6082 ;;		On exit  : 0/0
  6083 ;;		Unchanged: 0/0
  6084 ;; Data sizes:     COMMON   BANK0   BANK1   BANK2   BANK3   BANK4   BANK5   BANK6   BANK7   BANK8   BANK9  BANK10  BANK1
      +1  BANK12  BANK13  BANK14  BANK15  BANK16  BANK17  BANK18  BANK19  BANK20  BANK21  BANK22  BANK23  BANK24  BANK25
  6085 ;;      Params:         0       0       0       0       0       0       0       0       0       0       0       0       
      +0       0       0       0       0       0       0       0       0       0       0       0       0       0       0
  6086 ;;      Locals:         0       0       0       0       0       0       0       0       0       0       0       0       
      +0       0       0       0       0       0       0       0       0       0       0       0       0       0       0
  6087 ;;      Temps:          0       1       0       0       0       0       0       0       0       0       0       0       
      +0       0       0       0       0       0       0       0       0       0       0       0       0       0       0
  6088 ;;      Totals:         0       1       0       0       0       0       0       0       0       0       0       0       
      +0       0       0       0       0       0       0       0       0       0       0       0       0       0       0
  6089 ;;Total ram usage:        1 bytes
  6090 ;; Hardware stack levels used:    1
  6091 ;; Hardware stack levels required when called:    3
  6092 ;; This function calls:
  6093 ;;		Nothing
  6094 ;; This function is called by:
  6095 ;;		_main
  6096 ;; This function uses a non-reentrant model
  6097 ;;
  6098                           
  6099                           
  6100                           ;psect for function _initComand
  6101  028F                     _initComand:	
  6102                           
  6103                           ;command.c: 16: command[0] = 0b00111111;
  6104                           
  6105                           ;incstack = 0
  6106                           ; Regs used in _initComand: [wreg]
  6107  028F  303F               	movlw	63
  6108  0290  0020               	movlb	0	; select bank0
  6109  0291  00E0               	movwf	??_initComand
  6110  0292  0860               	movf	??_initComand,w
  6111  0293  0021               	movlb	1	; select bank1
  6112  0294  00B2               	movwf	_command^(0+128)
  6113                           
  6114                           ;command.c: 17: command[1] = 0b01111111;
  6115  0295  307F               	movlw	127
  6116  0296  0020               	movlb	0	; select bank0
  6117  0297  00E0               	movwf	??_initComand
  6118  0298  0860               	movf	??_initComand,w
  6119  0299  0021               	movlb	1	; select bank1
  6120  029A  00B3               	movwf	(_command^(0+128)+1)
  6121                           
  6122                           ;command.c: 18: command[2] = 0b10011111;
  6123  029B  309F               	movlw	159
  6124  029C  0020               	movlb	0	; select bank0
  6125  029D  00E0               	movwf	??_initComand
  6126  029E  0860               	movf	??_initComand,w
  6127  029F  0021               	movlb	1	; select bank1
  6128  02A0  00B4               	movwf	(_command^(0+128)+2)
  6129                           
  6130                           ;command.c: 19: command[3] = 0b10101111;
  6131  02A1  30AF               	movlw	175
  6132  02A2  0020               	movlb	0	; select bank0
  6133  02A3  00E0               	movwf	??_initComand
  6134  02A4  0860               	movf	??_initComand,w
  6135  02A5  0021               	movlb	1	; select bank1
  6136  02A6  00B5               	movwf	(_command^(0+128)+3)
  6137                           
  6138                           ;command.c: 20: command[4] = 0b10111111;
  6139  02A7  30BF               	movlw	191
  6140  02A8  0020               	movlb	0	; select bank0
  6141  02A9  00E0               	movwf	??_initComand
  6142  02AA  0860               	movf	??_initComand,w
  6143  02AB  0021               	movlb	1	; select bank1
  6144  02AC  00B6               	movwf	(_command^(0+128)+4)
  6145                           
  6146                           ;command.c: 21: command[5] = 0b11001111;
  6147  02AD  30CF               	movlw	207
  6148  02AE  0020               	movlb	0	; select bank0
  6149  02AF  00E0               	movwf	??_initComand
  6150  02B0  0860               	movf	??_initComand,w
  6151  02B1  0021               	movlb	1	; select bank1
  6152  02B2  00B7               	movwf	(_command^(0+128)+5)
  6153                           
  6154                           ;command.c: 22: command[6] = 0b11010111;
  6155  02B3  30D7               	movlw	215
  6156  02B4  0020               	movlb	0	; select bank0
  6157  02B5  00E0               	movwf	??_initComand
  6158  02B6  0860               	movf	??_initComand,w
  6159  02B7  0021               	movlb	1	; select bank1
  6160  02B8  00B8               	movwf	(_command^(0+128)+6)
  6161                           
  6162                           ;command.c: 23: command[7] = 0b11011111;
  6163  02B9  30DF               	movlw	223
  6164  02BA  0020               	movlb	0	; select bank0
  6165  02BB  00E0               	movwf	??_initComand
  6166  02BC  0860               	movf	??_initComand,w
  6167  02BD  0021               	movlb	1	; select bank1
  6168  02BE  00B9               	movwf	(_command^(0+128)+7)
  6169                           
  6170                           ;command.c: 24: command[8] = 0b11100111;
  6171  02BF  30E7               	movlw	231
  6172  02C0  0020               	movlb	0	; select bank0
  6173  02C1  00E0               	movwf	??_initComand
  6174  02C2  0860               	movf	??_initComand,w
  6175  02C3  0021               	movlb	1	; select bank1
  6176  02C4  00BA               	movwf	(_command^(0+128)+8)
  6177                           
  6178                           ;command.c: 25: command[9] = 0b11101011;
  6179  02C5  30EB               	movlw	235
  6180  02C6  0020               	movlb	0	; select bank0
  6181  02C7  00E0               	movwf	??_initComand
  6182  02C8  0860               	movf	??_initComand,w
  6183  02C9  0021               	movlb	1	; select bank1
  6184  02CA  00BB               	movwf	(_command^(0+128)+9)
  6185                           
  6186                           ;command.c: 26: command[10] = 0b11101111;
  6187  02CB  30EF               	movlw	239
  6188  02CC  0020               	movlb	0	; select bank0
  6189  02CD  00E0               	movwf	??_initComand
  6190  02CE  0860               	movf	??_initComand,w
  6191  02CF  0021               	movlb	1	; select bank1
  6192  02D0  00BC               	movwf	(_command^(0+128)+10)
  6193                           
  6194                           ;command.c: 27: command[11] = 0b11110001;
  6195  02D1  30F1               	movlw	241
  6196  02D2  0020               	movlb	0	; select bank0
  6197  02D3  00E0               	movwf	??_initComand
  6198  02D4  0860               	movf	??_initComand,w
  6199  02D5  0021               	movlb	1	; select bank1
  6200  02D6  00BD               	movwf	(_command^(0+128)+11)
  6201                           
  6202                           ;command.c: 28: command[12] = 0b11110011;
  6203  02D7  30F3               	movlw	243
  6204  02D8  0020               	movlb	0	; select bank0
  6205  02D9  00E0               	movwf	??_initComand
  6206  02DA  0860               	movf	??_initComand,w
  6207  02DB  0021               	movlb	1	; select bank1
  6208  02DC  00BE               	movwf	(_command^(0+128)+12)
  6209                           
  6210                           ;command.c: 29: command[13] = 0b11110101;
  6211  02DD  30F5               	movlw	245
  6212  02DE  0020               	movlb	0	; select bank0
  6213  02DF  00E0               	movwf	??_initComand
  6214  02E0  0860               	movf	??_initComand,w
  6215  02E1  0021               	movlb	1	; select bank1
  6216  02E2  00BF               	movwf	(_command^(0+128)+13)
  6217                           
  6218                           ;command.c: 30: command[14] = 0b11110111;
  6219  02E3  30F7               	movlw	247
  6220  02E4  0020               	movlb	0	; select bank0
  6221  02E5  00E0               	movwf	??_initComand
  6222  02E6  0860               	movf	??_initComand,w
  6223  02E7  0021               	movlb	1	; select bank1
  6224  02E8  00C0               	movwf	(_command^(0+128)+14)
  6225                           
  6226                           ;command.c: 31: command[15] = 0b11111000;
  6227  02E9  30F8               	movlw	248
  6228  02EA  0020               	movlb	0	; select bank0
  6229  02EB  00E0               	movwf	??_initComand
  6230  02EC  0860               	movf	??_initComand,w
  6231  02ED  0021               	movlb	1	; select bank1
  6232  02EE  00C1               	movwf	(_command^(0+128)+15)
  6233                           
  6234                           ;command.c: 32: command[16] = 0b11111001;
  6235  02EF  30F9               	movlw	249
  6236  02F0  0020               	movlb	0	; select bank0
  6237  02F1  00E0               	movwf	??_initComand
  6238  02F2  0860               	movf	??_initComand,w
  6239  02F3  0021               	movlb	1	; select bank1
  6240  02F4  00C2               	movwf	(_command^(0+128)+16)
  6241                           
  6242                           ;command.c: 33: command[17] = 0b11111010;
  6243  02F5  30FA               	movlw	250
  6244  02F6  0020               	movlb	0	; select bank0
  6245  02F7  00E0               	movwf	??_initComand
  6246  02F8  0860               	movf	??_initComand,w
  6247  02F9  0021               	movlb	1	; select bank1
  6248  02FA  00C3               	movwf	(_command^(0+128)+17)
  6249  02FB  0008               	return
  6250  02FC                     __end_of_initComand:	
  6251                           
  6252                           	psect	text21
  6253  0561                     __ptext21:	
  6254 ;; *************** function _initCargo *****************
  6255 ;; Defined at:
  6256 ;;		line 17 in file "D:/programdata/16F18346_Link_IC.X/normal_mode.c"
  6257 ;; Parameters:    Size  Location     Type
  6258 ;;		None
  6259 ;; Auto vars:     Size  Location     Type
  6260 ;;		None
  6261 ;; Return value:  Size  Location     Type
  6262 ;;                  1    wreg      void 
  6263 ;; Registers used:
  6264 ;;		wreg, status,2
  6265 ;; Tracked objects:
  6266 ;;		On entry : 0/0
  6267 ;;		On exit  : 0/0
  6268 ;;		Unchanged: 0/0
  6269 ;; Data sizes:     COMMON   BANK0   BANK1   BANK2   BANK3   BANK4   BANK5   BANK6   BANK7   BANK8   BANK9  BANK10  BANK1
      +1  BANK12  BANK13  BANK14  BANK15  BANK16  BANK17  BANK18  BANK19  BANK20  BANK21  BANK22  BANK23  BANK24  BANK25
  6270 ;;      Params:         0       0       0       0       0       0       0       0       0       0       0       0       
      +0       0       0       0       0       0       0       0       0       0       0       0       0       0       0
  6271 ;;      Locals:         0       0       0       0       0       0       0       0       0       0       0       0       
      +0       0       0       0       0       0       0       0       0       0       0       0       0       0       0
  6272 ;;      Temps:          0       0       0       0       0       0       0       0       0       0       0       0       
      +0       0       0       0       0       0       0       0       0       0       0       0       0       0       0
  6273 ;;      Totals:         0       0       0       0       0       0       0       0       0       0       0       0       
      +0       0       0       0       0       0       0       0       0       0       0       0       0       0       0
  6274 ;;Total ram usage:        0 bytes
  6275 ;; Hardware stack levels used:    1
  6276 ;; Hardware stack levels required when called:    3
  6277 ;; This function calls:
  6278 ;;		Nothing
  6279 ;; This function is called by:
  6280 ;;		_main
  6281 ;; This function uses a non-reentrant model
  6282 ;;
  6283                           
  6284                           
  6285                           ;psect for function _initCargo
  6286  0561                     _initCargo:	
  6287                           
  6288                           ;normal_mode.c: 18: isMycargo = 1;
  6289                           
  6290                           ;incstack = 0
  6291                           ; Regs used in _initCargo: [wreg+status,2]
  6292  0561  0020               	movlb	0	; select bank0
  6293  0562  14ED               	bsf	_isMycargo/(0+8),_isMycargo& (0+7)
  6294                           
  6295                           ;normal_mode.c: 19: cargoData.WorkingCount = 0;
  6296  0563  3000               	movlw	0
  6297  0564  00AF               	movwf	_cargoData+15
  6298  0565  3000               	movlw	0
  6299  0566  00AE               	movwf	_cargoData+14
  6300  0567  3000               	movlw	0
  6301  0568  00AD               	movwf	_cargoData+13
  6302  0569  3000               	movlw	0
  6303  056A  00AC               	movwf	_cargoData+12
  6304                           
  6305                           ;normal_mode.c: 20: cargoData.address = 0;
  6306  056B  01A4               	clrf	_cargoData+4
  6307                           
  6308                           ;normal_mode.c: 21: cargoData.cargoLength = 0xFFFF;
  6309  056C  30FF               	movlw	255
  6310  056D  00A0               	movwf	_cargoData
  6311  056E  30FF               	movlw	255
  6312  056F  00A1               	movwf	_cargoData+1
  6313                           
  6314                           ;normal_mode.c: 22: cargoData.clutchMode = 0;
  6315  0570  01AB               	clrf	_cargoData+11
  6316                           
  6317                           ;normal_mode.c: 23: cargoData.command = 0;
  6318  0571  01A2               	clrf	_cargoData+2
  6319                           
  6320                           ;normal_mode.c: 24: cargoData.index = 0;
  6321  0572  01A3               	clrf	_cargoData+3
  6322                           
  6323                           ;normal_mode.c: 25: cargoData.linkAngleBack = 0;
  6324  0573  01A7               	clrf	_cargoData+7
  6325  0574  01A8               	clrf	_cargoData+8
  6326                           
  6327                           ;normal_mode.c: 26: cargoData.linkAngleTo = 0;
  6328  0575  01A5               	clrf	_cargoData+5
  6329  0576  01A6               	clrf	_cargoData+6
  6330                           
  6331                           ;normal_mode.c: 27: cargoData.passedTime = 0;
  6332  0577  01A9               	clrf	_cargoData+9
  6333  0578  01AA               	clrf	_cargoData+10
  6334  0579  0008               	return
  6335  057A                     __end_of_initCargo:	
  6336                           
  6337                           	psect	text22
  6338  0464                     __ptext22:	
  6339 ;; *************** function _init *****************
  6340 ;; Defined at:
  6341 ;;		line 97 in file "D:/programdata/16F18346_Link_IC.X/main.c"
  6342 ;; Parameters:    Size  Location     Type
  6343 ;;		None
  6344 ;; Auto vars:     Size  Location     Type
  6345 ;;		None
  6346 ;; Return value:  Size  Location     Type
  6347 ;;                  1    wreg      void 
  6348 ;; Registers used:
  6349 ;;		wreg, fsr1l, fsr1h, status,2, status,0, pclath, cstack
  6350 ;; Tracked objects:
  6351 ;;		On entry : 0/0
  6352 ;;		On exit  : 0/0
  6353 ;;		Unchanged: 0/0
  6354 ;; Data sizes:     COMMON   BANK0   BANK1   BANK2   BANK3   BANK4   BANK5   BANK6   BANK7   BANK8   BANK9  BANK10  BANK1
      +1  BANK12  BANK13  BANK14  BANK15  BANK16  BANK17  BANK18  BANK19  BANK20  BANK21  BANK22  BANK23  BANK24  BANK25
  6355 ;;      Params:         0       0       0       0       0       0       0       0       0       0       0       0       
      +0       0       0       0       0       0       0       0       0       0       0       0       0       0       0
  6356 ;;      Locals:         0       0       0       0       0       0       0       0       0       0       0       0       
      +0       0       0       0       0       0       0       0       0       0       0       0       0       0       0
  6357 ;;      Temps:          0       0       0       0       0       0       0       0       0       0       0       0       
      +0       0       0       0       0       0       0       0       0       0       0       0       0       0       0
  6358 ;;      Totals:         0       0       0       0       0       0       0       0       0       0       0       0       
      +0       0       0       0       0       0       0       0       0       0       0       0       0       0       0
  6359 ;;Total ram usage:        0 bytes
  6360 ;; Hardware stack levels used:    1
  6361 ;; Hardware stack levels required when called:    4
  6362 ;; This function calls:
  6363 ;;		_clear
  6364 ;;		_initbuffer
  6365 ;; This function is called by:
  6366 ;;		_main
  6367 ;; This function uses a non-reentrant model
  6368 ;;
  6369                           
  6370                           
  6371                           ;psect for function _init
  6372  0464                     _init:	
  6373                           
  6374                           ;main.c: 98: count1 = 0;
  6375                           
  6376                           ;incstack = 0
  6377                           ; Regs used in _init: [wreg+fsr1l+fsr1h+status,2+status,0+pclath+cstack]
  6378  0464  0020               	movlb	0	; select bank0
  6379  0465  01D7               	clrf	_count1
  6380  0466  01D8               	clrf	_count1+1
  6381                           
  6382                           ;main.c: 99: count2 = 0;
  6383  0467  01D5               	clrf	_count2
  6384  0468  01D6               	clrf	_count2+1
  6385                           
  6386                           ;main.c: 100: initbuffer();
  6387  0469  3184  248F  3184   	fcall	_initbuffer
  6388                           
  6389                           ;main.c: 102: OSCFRQbits.HFFRQ = 0b0111;
  6390  046C  0032               	movlb	18	; select bank18
  6391  046D  081F               	movf	31,w	;volatile
  6392  046E  39F0               	andlw	-16
  6393  046F  3807               	iorlw	7
  6394  0470  009F               	movwf	31	;volatile
  6395                           
  6396                           ;main.c: 103: OSCTUNEbits.HFTUN = 0b000000;
  6397  0471  30C0               	movlw	-64
  6398  0472  059E               	andwf	30,f	;volatile
  6399                           
  6400                           ;main.c: 104: clear();
  6401  0473  3185  25C2         	fcall	_clear
  6402                           
  6403                           ;main.c: 105: WPUC = 0b11111111;
  6404  0475  30FF               	movlw	255
  6405  0476  0024               	movlb	4	; select bank4
  6406  0477  008E               	movwf	14	;volatile
  6407                           
  6408                           ;main.c: 106: WPUB = 0b11111111;
  6409  0478  30FF               	movlw	255
  6410  0479  008D               	movwf	13	;volatile
  6411                           
  6412                           ;main.c: 107: WPUA = 0b11111111;
  6413  047A  30FF               	movlw	255
  6414  047B  008C               	movwf	12	;volatile
  6415                           
  6416                           ;main.c: 108: TRISBbits.TRISB6 = 1;
  6417  047C  0021               	movlb	1	; select bank1
  6418  047D  170D               	bsf	13,6	;volatile
  6419                           
  6420                           ;main.c: 109: TRISBbits.TRISB4 = 1;
  6421  047E  160D               	bsf	13,4	;volatile
  6422                           
  6423                           ;main.c: 110: TRISCbits.TRISC6 = 1;
  6424  047F  170E               	bsf	14,6	;volatile
  6425                           
  6426                           ;main.c: 111: INLVLBbits.INLVLB4 = 0;
  6427  0480  0027               	movlb	7	; select bank7
  6428  0481  120D               	bcf	13,4	;volatile
  6429                           
  6430                           ;main.c: 112: INLVLBbits.INLVLB6 = 0;
  6431  0482  130D               	bcf	13,6	;volatile
  6432                           
  6433                           ;main.c: 113: INLVLCbits.INLVLC5 = 0;
  6434  0483  128E               	bcf	14,5	;volatile
  6435                           
  6436                           ;main.c: 115: WPUA = 0b111111;
  6437  0484  303F               	movlw	63
  6438  0485  0024               	movlb	4	; select bank4
  6439  0486  008C               	movwf	12	;volatile
  6440                           
  6441                           ;main.c: 116: TRISBbits.TRISB5 = 1;
  6442  0487  0021               	movlb	1	; select bank1
  6443  0488  168D               	bsf	13,5	;volatile
  6444                           
  6445                           ;main.c: 117: INLVLBbits.INLVLB5 = 0;
  6446  0489  0027               	movlb	7	; select bank7
  6447  048A  128D               	bcf	13,5	;volatile
  6448                           
  6449                           ;main.c: 118: INLVLBbits.INLVLB7 = 0;
  6450  048B  138D               	bcf	13,7	;volatile
  6451                           
  6452                           ;main.c: 119: INLVLAbits.INLVLA1 = 0;
  6453  048C  108C               	bcf	12,1	;volatile
  6454                           
  6455                           ;main.c: 120: INLVLAbits.INLVLA2 = 0;
  6456  048D  110C               	bcf	12,2	;volatile
  6457  048E  0008               	return
  6458  048F                     __end_of_init:	
  6459                           ;main.c: 121: return;
  6460                           
  6461                           
  6462                           	psect	text23
  6463  048F                     __ptext23:	
  6464 ;; *************** function _initbuffer *****************
  6465 ;; Defined at:
  6466 ;;		line 91 in file "D:/programdata/16F18346_Link_IC.X/main.c"
  6467 ;; Parameters:    Size  Location     Type
  6468 ;;		None
  6469 ;; Auto vars:     Size  Location     Type
  6470 ;;  i               2    2[BANK0 ] int 
  6471 ;; Return value:  Size  Location     Type
  6472 ;;                  1    wreg      void 
  6473 ;; Registers used:
  6474 ;;		wreg, fsr1l, fsr1h, status,2, status,0
  6475 ;; Tracked objects:
  6476 ;;		On entry : 0/0
  6477 ;;		On exit  : 0/0
  6478 ;;		Unchanged: 0/0
  6479 ;; Data sizes:     COMMON   BANK0   BANK1   BANK2   BANK3   BANK4   BANK5   BANK6   BANK7   BANK8   BANK9  BANK10  BANK1
      +1  BANK12  BANK13  BANK14  BANK15  BANK16  BANK17  BANK18  BANK19  BANK20  BANK21  BANK22  BANK23  BANK24  BANK25
  6480 ;;      Params:         0       0       0       0       0       0       0       0       0       0       0       0       
      +0       0       0       0       0       0       0       0       0       0       0       0       0       0       0
  6481 ;;      Locals:         0       2       0       0       0       0       0       0       0       0       0       0       
      +0       0       0       0       0       0       0       0       0       0       0       0       0       0       0
  6482 ;;      Temps:          0       2       0       0       0       0       0       0       0       0       0       0       
      +0       0       0       0       0       0       0       0       0       0       0       0       0       0       0
  6483 ;;      Totals:         0       4       0       0       0       0       0       0       0       0       0       0       
      +0       0       0       0       0       0       0       0       0       0       0       0       0       0       0
  6484 ;;Total ram usage:        4 bytes
  6485 ;; Hardware stack levels used:    1
  6486 ;; Hardware stack levels required when called:    3
  6487 ;; This function calls:
  6488 ;;		Nothing
  6489 ;; This function is called by:
  6490 ;;		_init
  6491 ;; This function uses a non-reentrant model
  6492 ;;
  6493                           
  6494                           
  6495                           ;psect for function _initbuffer
  6496  048F                     _initbuffer:	
  6497                           
  6498                           ;main.c: 92: for(int i = 0; i < 256; i++){
  6499                           
  6500                           ;incstack = 0
  6501                           ; Regs used in _initbuffer: [wreg+fsr1l+fsr1h+status,2+status,0]
  6502  048F  0020               	movlb	0	; select bank0
  6503  0490  01E2               	clrf	initbuffer@i
  6504  0491  01E3               	clrf	initbuffer@i+1
  6505  0492                     L29:	
  6506  0492  0863               	movf	initbuffer@i+1,w
  6507  0493  3A80               	xorlw	128
  6508  0494  00E0               	movwf	??_initbuffer
  6509  0495  3081               	movlw	129
  6510  0496  0260               	subwf	??_initbuffer,w
  6511  0497  1D03               	skipz
  6512  0498  2C9B               	goto	u825
  6513  0499  3000               	movlw	0
  6514  049A  0262               	subwf	initbuffer@i,w
  6515  049B                     u825:	
  6516  049B  1803               	btfsc	3,0
  6517  049C  0008               	return
  6518                           
  6519                           ;main.c: 93: spi1_buffer_data[i] = 0;
  6520  049D  30F0               	movlw	240
  6521  049E  0020               	movlb	0	; select bank0
  6522  049F  00E0               	movwf	??_initbuffer
  6523  04A0  3026               	movlw	38
  6524  04A1  00E1               	movwf	??_initbuffer+1
  6525  04A2  0862               	movf	initbuffer@i,w
  6526  04A3  0760               	addwf	??_initbuffer,w
  6527  04A4  0086               	movwf	6
  6528  04A5  0863               	movf	initbuffer@i+1,w
  6529  04A6  3D61               	addwfc	??_initbuffer+1,w
  6530  04A7  0087               	movwf	7
  6531  04A8  0181               	clrf	1
  6532                           
  6533                           ;main.c: 94: spi2_buffer_data[i] = 0;
  6534  04A9  30F0               	movlw	240
  6535  04AA  00E0               	movwf	??_initbuffer
  6536  04AB  3025               	movlw	37
  6537  04AC  00E1               	movwf	??_initbuffer+1
  6538  04AD  0862               	movf	initbuffer@i,w
  6539  04AE  0760               	addwf	??_initbuffer,w
  6540  04AF  0086               	movwf	6
  6541  04B0  0863               	movf	initbuffer@i+1,w
  6542  04B1  3D61               	addwfc	??_initbuffer+1,w
  6543  04B2  0087               	movwf	7
  6544  04B3  0181               	clrf	1
  6545  04B4  3001               	movlw	1
  6546  04B5  07E2               	addwf	initbuffer@i,f
  6547  04B6  3000               	movlw	0
  6548  04B7  3DE3               	addwfc	initbuffer@i+1,f
  6549  04B8  2C92               	goto	L29
  6550  04B9                     __end_of_initbuffer:	
  6551                           
  6552                           	psect	text24
  6553  05C2                     __ptext24:	
  6554 ;; *************** function _clear *****************
  6555 ;; Defined at:
  6556 ;;		line 9 in file "D:/programdata/16F18346_Link_IC.X/util.c"
  6557 ;; Parameters:    Size  Location     Type
  6558 ;;		None
  6559 ;; Auto vars:     Size  Location     Type
  6560 ;;		None
  6561 ;; Return value:  Size  Location     Type
  6562 ;;                  1    wreg      void 
  6563 ;; Registers used:
  6564 ;;		status,2
  6565 ;; Tracked objects:
  6566 ;;		On entry : 0/0
  6567 ;;		On exit  : 0/0
  6568 ;;		Unchanged: 0/0
  6569 ;; Data sizes:     COMMON   BANK0   BANK1   BANK2   BANK3   BANK4   BANK5   BANK6   BANK7   BANK8   BANK9  BANK10  BANK1
      +1  BANK12  BANK13  BANK14  BANK15  BANK16  BANK17  BANK18  BANK19  BANK20  BANK21  BANK22  BANK23  BANK24  BANK25
  6570 ;;      Params:         0       0       0       0       0       0       0       0       0       0       0       0       
      +0       0       0       0       0       0       0       0       0       0       0       0       0       0       0
  6571 ;;      Locals:         0       0       0       0       0       0       0       0       0       0       0       0       
      +0       0       0       0       0       0       0       0       0       0       0       0       0       0       0
  6572 ;;      Temps:          0       0       0       0       0       0       0       0       0       0       0       0       
      +0       0       0       0       0       0       0       0       0       0       0       0       0       0       0
  6573 ;;      Totals:         0       0       0       0       0       0       0       0       0       0       0       0       
      +0       0       0       0       0       0       0       0       0       0       0       0       0       0       0
  6574 ;;Total ram usage:        0 bytes
  6575 ;; Hardware stack levels used:    1
  6576 ;; Hardware stack levels required when called:    3
  6577 ;; This function calls:
  6578 ;;		Nothing
  6579 ;; This function is called by:
  6580 ;;		_init
  6581 ;; This function uses a non-reentrant model
  6582 ;;
  6583                           
  6584                           
  6585                           ;psect for function _clear
  6586  05C2                     _clear:	
  6587                           
  6588                           ;util.c: 10: ANSELA = 0x00;
  6589                           
  6590                           ;incstack = 0
  6591                           ; Regs used in _clear: [status,2]
  6592  05C2  0023               	movlb	3	; select bank3
  6593  05C3  018C               	clrf	12	;volatile
  6594                           
  6595                           ;util.c: 11: ANSELB = 0x00;
  6596  05C4  018D               	clrf	13	;volatile
  6597                           
  6598                           ;util.c: 12: ANSELC = 0x00;
  6599  05C5  018E               	clrf	14	;volatile
  6600                           
  6601                           ;util.c: 13: PORTA = 0x00;
  6602  05C6  0020               	movlb	0	; select bank0
  6603  05C7  018C               	clrf	12	;volatile
  6604                           
  6605                           ;util.c: 14: PORTB = 0x00;
  6606  05C8  018D               	clrf	13	;volatile
  6607                           
  6608                           ;util.c: 15: PORTC = 0x00;
  6609  05C9  018E               	clrf	14	;volatile
  6610                           
  6611                           ;util.c: 16: TRISA = 0x00;
  6612  05CA  0021               	movlb	1	; select bank1
  6613  05CB  018C               	clrf	12	;volatile
  6614                           
  6615                           ;util.c: 17: TRISB = 0x00;
  6616  05CC  018D               	clrf	13	;volatile
  6617                           
  6618                           ;util.c: 18: TRISC = 0x00;
  6619  05CD  018E               	clrf	14	;volatile
  6620  05CE  0008               	return
  6621  05CF                     __end_of_clear:	
  6622                           
  6623                           	psect	intentry
  6624  0004                     __pintentry:	
  6625 ;; *************** function _InterMSSP *****************
  6626 ;; Defined at:
  6627 ;;		line 66 in file "D:/programdata/16F18346_Link_IC.X/main.c"
  6628 ;; Parameters:    Size  Location     Type
  6629 ;;		None
  6630 ;; Auto vars:     Size  Location     Type
  6631 ;;		None
  6632 ;; Return value:  Size  Location     Type
  6633 ;;                  1    wreg      void 
  6634 ;; Registers used:
  6635 ;;		wreg, fsr1l, fsr1h, status,2, status,0, pclath, cstack
  6636 ;; Tracked objects:
  6637 ;;		On entry : 0/0
  6638 ;;		On exit  : 0/0
  6639 ;;		Unchanged: 0/0
  6640 ;; Data sizes:     COMMON   BANK0   BANK1   BANK2   BANK3   BANK4   BANK5   BANK6   BANK7   BANK8   BANK9  BANK10  BANK1
      +1  BANK12  BANK13  BANK14  BANK15  BANK16  BANK17  BANK18  BANK19  BANK20  BANK21  BANK22  BANK23  BANK24  BANK25
  6641 ;;      Params:         0       0       0       0       0       0       0       0       0       0       0       0       
      +0       0       0       0       0       0       0       0       0       0       0       0       0       0       0
  6642 ;;      Locals:         0       0       0       0       0       0       0       0       0       0       0       0       
      +0       0       0       0       0       0       0       0       0       0       0       0       0       0       0
  6643 ;;      Temps:          5       0       0       0       0       0       0       0       0       0       0       0       
      +0       0       0       0       0       0       0       0       0       0       0       0       0       0       0
  6644 ;;      Totals:         5       0       0       0       0       0       0       0       0       0       0       0       
      +0       0       0       0       0       0       0       0       0       0       0       0       0       0       0
  6645 ;;Total ram usage:        5 bytes
  6646 ;; Hardware stack levels used:    1
  6647 ;; Hardware stack levels required when called:    2
  6648 ;; This function calls:
  6649 ;;		_setSPI1sendData
  6650 ;; This function is called by:
  6651 ;;		Interrupt level 1
  6652 ;; This function uses a non-reentrant model
  6653 ;;
  6654                           
  6655  0004                     _InterMSSP:	
  6656                           
  6657                           ;incstack = 0
  6658  0004  147E               	bsf	126,0	;set compiler interrupt flag (level 1)
  6659                           
  6660                           ; Regs used in _InterMSSP: [wreg+fsr1l+fsr1h+status,2+status,0+pclath+cstack]
  6661  0005  3180               	pagesel	$
  6662  0006  0020               	movlb	0	; select bank0
  6663  0007  087F               	movf	127,w
  6664  0008  00F6               	movwf	??_InterMSSP+4
  6665                           
  6666                           ;main.c: 68: if (PIR1bits.SSP1IF == 1) {
  6667  0009  1D91               	btfss	17,3	;volatile
  6668  000A  282A               	goto	i1l2004
  6669                           
  6670                           ;main.c: 69: spi1_buffer_data[count1] = SSP1BUF;
  6671  000B  30F0               	movlw	240
  6672  000C  00F2               	movwf	??_InterMSSP
  6673  000D  3026               	movlw	38
  6674  000E  00F3               	movwf	??_InterMSSP+1
  6675  000F  0857               	movf	_count1,w
  6676  0010  0772               	addwf	??_InterMSSP,w
  6677  0011  00F4               	movwf	??_InterMSSP+2
  6678  0012  0858               	movf	_count1+1,w
  6679  0013  3D73               	addwfc	??_InterMSSP+1,w
  6680  0014  00F5               	movwf	??_InterMSSP+3
  6681  0015  0874               	movf	??_InterMSSP+2,w
  6682  0016  0086               	movwf	6
  6683  0017  0875               	movf	??_InterMSSP+3,w
  6684  0018  0087               	movwf	7
  6685  0019  0024               	movlb	4	; select bank4
  6686  001A  0811               	movf	17,w	;volatile
  6687  001B  0081               	movwf	1
  6688                           
  6689                           ;main.c: 70: setSPI1sendData();
  6690  001C  3184  24FF  3180   	fcall	_setSPI1sendData
  6691                           
  6692                           ;main.c: 71: count1++;
  6693  001F  3001               	movlw	1
  6694  0020  0020               	movlb	0	; select bank0
  6695  0021  07D7               	addwf	_count1,f
  6696  0022  3000               	movlw	0
  6697  0023  3DD8               	addwfc	_count1+1,f
  6698                           
  6699                           ;main.c: 72: if(count1 == 256){
  6700  0024  0358               	decf	_count1+1,w
  6701  0025  0457               	iorwf	_count1,w
  6702  0026  1D03               	btfss	3,2
  6703  0027  282A               	goto	i1l2004
  6704                           
  6705                           ;main.c: 73: count1 = 0;
  6706  0028  01D7               	clrf	_count1
  6707  0029  01D8               	clrf	_count1+1
  6708  002A                     i1l2004:	
  6709                           
  6710                           ;main.c: 74: }
  6711                           ;main.c: 75: }
  6712                           ;main.c: 76: if(linkInfo.endpoint == 0){
  6713  002A  083E               	movf	_linkInfo+5,w
  6714  002B  1903               	btfsc	3,2
  6715                           
  6716                           ;main.c: 77: if (PIR2bits.SSP2IF == 1) {
  6717  002C  1D92               	btfss	18,3	;volatile
  6718  002D  284A               	goto	i1l2016
  6719                           
  6720                           ;main.c: 78: spi2_buffer_data[count2] = SSP2BUF;
  6721  002E  30F0               	movlw	240
  6722  002F  00F2               	movwf	??_InterMSSP
  6723  0030  3025               	movlw	37
  6724  0031  00F3               	movwf	??_InterMSSP+1
  6725  0032  0855               	movf	_count2,w
  6726  0033  0772               	addwf	??_InterMSSP,w
  6727  0034  00F4               	movwf	??_InterMSSP+2
  6728  0035  0856               	movf	_count2+1,w
  6729  0036  3D73               	addwfc	??_InterMSSP+1,w
  6730  0037  00F5               	movwf	??_InterMSSP+3
  6731  0038  0874               	movf	??_InterMSSP+2,w
  6732  0039  0086               	movwf	6
  6733  003A  0875               	movf	??_InterMSSP+3,w
  6734  003B  0087               	movwf	7
  6735  003C  0024               	movlb	4	; select bank4
  6736  003D  0819               	movf	25,w	;volatile
  6737  003E  0081               	movwf	1
  6738                           
  6739                           ;main.c: 79: count2++;
  6740  003F  3001               	movlw	1
  6741  0040  0020               	movlb	0	; select bank0
  6742  0041  07D5               	addwf	_count2,f
  6743  0042  3000               	movlw	0
  6744  0043  3DD6               	addwfc	_count2+1,f
  6745                           
  6746                           ;main.c: 80: if(count2 == 256){
  6747  0044  0356               	decf	_count2+1,w
  6748  0045  0455               	iorwf	_count2,w
  6749  0046  1D03               	btfss	3,2
  6750  0047  284A               	goto	i1l2016
  6751                           
  6752                           ;main.c: 81: count2 = 0;
  6753  0048  01D5               	clrf	_count2
  6754  0049  01D6               	clrf	_count2+1
  6755  004A                     i1l2016:	
  6756                           
  6757                           ;main.c: 82: }
  6758                           ;main.c: 83: }
  6759                           ;main.c: 84: }
  6760                           ;main.c: 86: PIR1bits.SSP1IF = 0 ;
  6761  004A  1191               	bcf	17,3	;volatile
  6762                           
  6763                           ;main.c: 87: PIR2bits.SSP2IF = 0 ;
  6764  004B  1192               	bcf	18,3	;volatile
  6765                           
  6766                           ;main.c: 88: PIR0bits.INTF = 0;
  6767  004C  1010               	bcf	16,0	;volatile
  6768                           
  6769                           ;main.c: 89: PIR0bits.IOCIF = 0;
  6770  004D  1210               	bcf	16,4	;volatile
  6771  004E  0876               	movf	??_InterMSSP+4,w
  6772  004F  00FF               	movwf	127
  6773  0050  107E               	bcf	126,0	;clear compiler interrupt flag (level 1)
  6774  0051  0009               	retfie
  6775  0052                     __end_of_InterMSSP:	
  6776                           
  6777                           	psect	text26
  6778  04FF                     __ptext26:	
  6779 ;; *************** function _setSPI1sendData *****************
  6780 ;; Defined at:
  6781 ;;		line 92 in file "D:/programdata/16F18346_Link_IC.X/spiControl.c"
  6782 ;; Parameters:    Size  Location     Type
  6783 ;;		None
  6784 ;; Auto vars:     Size  Location     Type
  6785 ;;		None
  6786 ;; Return value:  Size  Location     Type
  6787 ;;                  1    wreg      void 
  6788 ;; Registers used:
  6789 ;;		wreg, fsr1l, fsr1h, status,2, status,0, pclath, cstack
  6790 ;; Tracked objects:
  6791 ;;		On entry : 0/0
  6792 ;;		On exit  : 0/0
  6793 ;;		Unchanged: 0/0
  6794 ;; Data sizes:     COMMON   BANK0   BANK1   BANK2   BANK3   BANK4   BANK5   BANK6   BANK7   BANK8   BANK9  BANK10  BANK1
      +1  BANK12  BANK13  BANK14  BANK15  BANK16  BANK17  BANK18  BANK19  BANK20  BANK21  BANK22  BANK23  BANK24  BANK25
  6795 ;;      Params:         0       0       0       0       0       0       0       0       0       0       0       0       
      +0       0       0       0       0       0       0       0       0       0       0       0       0       0       0
  6796 ;;      Locals:         0       0       0       0       0       0       0       0       0       0       0       0       
      +0       0       0       0       0       0       0       0       0       0       0       0       0       0       0
  6797 ;;      Temps:          2       0       0       0       0       0       0       0       0       0       0       0       
      +0       0       0       0       0       0       0       0       0       0       0       0       0       0       0
  6798 ;;      Totals:         2       0       0       0       0       0       0       0       0       0       0       0       
      +0       0       0       0       0       0       0       0       0       0       0       0       0       0       0
  6799 ;;Total ram usage:        2 bytes
  6800 ;; Hardware stack levels used:    1
  6801 ;; Hardware stack levels required when called:    1
  6802 ;; This function calls:
  6803 ;;		_isSPI2read
  6804 ;; This function is called by:
  6805 ;;		_InterMSSP
  6806 ;; This function uses a non-reentrant model
  6807 ;;
  6808                           
  6809                           
  6810                           ;psect for function _setSPI1sendData
  6811  04FF                     _setSPI1sendData:	
  6812                           
  6813                           ;spiControl.c: 93: if(!(isSPI2read() == 1)){
  6814                           
  6815                           ;incstack = 0
  6816                           ; Regs used in _setSPI1sendData: [wreg+fsr1l+fsr1h+status,2+status,0+pclath+cstack]
  6817  04FF  3185  25CF  3184   	fcall	_isSPI2read
  6818  0502  1803               	btfsc	3,0
  6819  0503  2D1E               	goto	i1l1804
  6820                           
  6821                           ;spiControl.c: 94: SSP1BUF = spi2_buffer_data[read_count2];
  6822  0504  30F0               	movlw	240
  6823  0505  00F0               	movwf	??_setSPI1sendData
  6824  0506  3025               	movlw	37
  6825  0507  00F1               	movwf	??_setSPI1sendData+1
  6826  0508  0020               	movlb	0	; select bank0
  6827  0509  084F               	movf	_read_count2,w
  6828  050A  0770               	addwf	??_setSPI1sendData,w
  6829  050B  0086               	movwf	6
  6830  050C  0850               	movf	_read_count2+1,w
  6831  050D  3D71               	addwfc	??_setSPI1sendData+1,w
  6832  050E  0087               	movwf	7
  6833  050F  0801               	movf	1,w
  6834  0510  0024               	movlb	4	; select bank4
  6835  0511  0091               	movwf	17	;volatile
  6836                           
  6837                           ;spiControl.c: 95: read_count2++;
  6838  0512  3001               	movlw	1
  6839  0513  0020               	movlb	0	; select bank0
  6840  0514  07CF               	addwf	_read_count2,f
  6841  0515  3000               	movlw	0
  6842  0516  3DD0               	addwfc	_read_count2+1,f
  6843                           
  6844                           ;spiControl.c: 96: if(read_count2 == 256){
  6845  0517  0350               	decf	_read_count2+1,w
  6846  0518  044F               	iorwf	_read_count2,w
  6847  0519  1D03               	btfss	3,2
  6848  051A  0008               	return
  6849                           
  6850                           ;spiControl.c: 97: read_count2 = 0;
  6851  051B  01CF               	clrf	_read_count2
  6852  051C  01D0               	clrf	_read_count2+1
  6853                           
  6854                           ;spiControl.c: 98: }
  6855                           ;spiControl.c: 99: }else{
  6856  051D  0008               	return
  6857  051E                     i1l1804:	
  6858                           
  6859                           ;spiControl.c: 100: SSP1BUF = 0x00;
  6860  051E  0024               	movlb	4	; select bank4
  6861  051F  0191               	clrf	17	;volatile
  6862  0520  0008               	return
  6863  0521                     __end_of_setSPI1sendData:	
  6864                           
  6865                           	psect	text27
  6866  05CF                     __ptext27:	
  6867 ;; *************** function _isSPI2read *****************
  6868 ;; Defined at:
  6869 ;;		line 76 in file "D:/programdata/16F18346_Link_IC.X/spiControl.c"
  6870 ;; Parameters:    Size  Location     Type
  6871 ;;		None
  6872 ;; Auto vars:     Size  Location     Type
  6873 ;;		None
  6874 ;; Return value:  Size  Location     Type
  6875 ;;		None               void
  6876 ;; Registers used:
  6877 ;;		wreg, status,2, status,0
  6878 ;; Tracked objects:
  6879 ;;		On entry : 0/0
  6880 ;;		On exit  : 0/0
  6881 ;;		Unchanged: 0/0
  6882 ;; Data sizes:     COMMON   BANK0   BANK1   BANK2   BANK3   BANK4   BANK5   BANK6   BANK7   BANK8   BANK9  BANK10  BANK1
      +1  BANK12  BANK13  BANK14  BANK15  BANK16  BANK17  BANK18  BANK19  BANK20  BANK21  BANK22  BANK23  BANK24  BANK25
  6883 ;;      Params:         0       0       0       0       0       0       0       0       0       0       0       0       
      +0       0       0       0       0       0       0       0       0       0       0       0       0       0       0
  6884 ;;      Locals:         0       0       0       0       0       0       0       0       0       0       0       0       
      +0       0       0       0       0       0       0       0       0       0       0       0       0       0       0
  6885 ;;      Temps:          0       0       0       0       0       0       0       0       0       0       0       0       
      +0       0       0       0       0       0       0       0       0       0       0       0       0       0       0
  6886 ;;      Totals:         0       0       0       0       0       0       0       0       0       0       0       0       
      +0       0       0       0       0       0       0       0       0       0       0       0       0       0       0
  6887 ;;Total ram usage:        0 bytes
  6888 ;; Hardware stack levels used:    1
  6889 ;; This function calls:
  6890 ;;		Nothing
  6891 ;; This function is called by:
  6892 ;;		_setSPI1sendData
  6893 ;; This function uses a non-reentrant model
  6894 ;;
  6895                           
  6896                           
  6897                           ;psect for function _isSPI2read
  6898  05CF                     _isSPI2read:	
  6899                           
  6900                           ;spiControl.c: 77: if(read_count2 == count2){
  6901                           
  6902                           ;incstack = 0
  6903                           ; Regs used in _isSPI2read: [wreg+status,2+status,0]
  6904  05CF  0020               	movlb	0	; select bank0
  6905  05D0  0856               	movf	_count2+1,w
  6906  05D1  0650               	xorwf	_read_count2+1,w
  6907  05D2  1D03               	skipz
  6908  05D3  2DD6               	goto	u42_25
  6909  05D4  0855               	movf	_count2,w
  6910  05D5  064F               	xorwf	_read_count2,w
  6911  05D6                     u42_25:	
  6912  05D6  1D03               	skipz
  6913  05D7  2DDA               	goto	i1l1660
  6914                           
  6915                           ;spiControl.c: 78: return 1;
  6916  05D8  1403               	setc
  6917                           
  6918                           ;spiControl.c: 79: }else{
  6919  05D9  0008               	return
  6920  05DA                     i1l1660:	
  6921                           
  6922                           ;spiControl.c: 80: return 0;
  6923  05DA  1003               	clrc
  6924  05DB  0008               	return
  6925  05DC                     __end_of_isSPI2read:	
  6926  007E                     btemp	set	126	;btemp
  6927  007E                     int$flags	set	126
  6928  007E                     wtemp0	set	126


Data Sizes:
    Strings     0
    Constant    4
    Data        2
    BSS         104
    Persistent  0
    Stack       0

Auto Spaces:
    Space          Size  Autos    Used
    COMMON           14      7       8
    BANK0            80     13      80
    BANK1            80     12      52
    BANK2            80      0       0
    BANK3            80      0       0
    BANK4            80      0       0
    BANK5            80      0       0
    BANK6            80      0       0
    BANK7            80      0       0
    BANK8            80      0       0
    BANK9            80      0       0
    BANK10           80      0       0
    BANK11           80      0       0
    BANK12           80      0       0
    BANK13           80      0       0
    BANK14           80      0       0
    BANK15           64      0       0
    BANK16            0      0       0
    BANK17            0      0       0
    BANK18            0      0       0
    BANK19            0      0       0
    BANK20            0      0       0
    BANK21            0      0       0
    BANK22            0      0       0
    BANK23            0      0       0
    BANK24            0      0       0
    BANK25            0      0       0

Pointer List with Targets:

    None.

Critical Paths under _main in COMMON

    None.

Critical Paths under _InterMSSP in COMMON

    _InterMSSP->_setSPI1sendData

Critical Paths under _main in BANK0

    _spi_init->_spi1_init
    _spi_init->_spi2_init
    _setComunicateMode->_readCargo
    _readCargo->_clutchaction
    _Calibrate_download->_isEndpoint
    _isEndpoint->_setSPI1sendDataManual
    _initTrain->_isTrainSt
    _init->_initbuffer

Critical Paths under _InterMSSP in BANK0

    None.

Critical Paths under _main in BANK1

    _main->_setComunicateMode
    _setComunicateMode->_Calibrate_download

Critical Paths under _InterMSSP in BANK1

    None.

Critical Paths under _main in BANK2

    None.

Critical Paths under _InterMSSP in BANK2

    None.

Critical Paths under _main in BANK3

    None.

Critical Paths under _InterMSSP in BANK3

    None.

Critical Paths under _main in BANK4

    None.

Critical Paths under _InterMSSP in BANK4

    None.

Critical Paths under _main in BANK5

    None.

Critical Paths under _InterMSSP in BANK5

    None.

Critical Paths under _main in BANK6

    None.

Critical Paths under _InterMSSP in BANK6

    None.

Critical Paths under _main in BANK7

    None.

Critical Paths under _InterMSSP in BANK7

    None.

Critical Paths under _main in BANK8

    None.

Critical Paths under _InterMSSP in BANK8

    None.

Critical Paths under _main in BANK9

    None.

Critical Paths under _InterMSSP in BANK9

    None.

Critical Paths under _main in BANK10

    None.

Critical Paths under _InterMSSP in BANK10

    None.

Critical Paths under _main in BANK11

    None.

Critical Paths under _InterMSSP in BANK11

    None.

Critical Paths under _main in BANK12

    None.

Critical Paths under _InterMSSP in BANK12

    None.

Critical Paths under _main in BANK13

    None.

Critical Paths under _InterMSSP in BANK13

    None.

Critical Paths under _main in BANK14

    None.

Critical Paths under _InterMSSP in BANK14

    None.

Critical Paths under _main in BANK15

    None.

Critical Paths under _InterMSSP in BANK15

    None.

Critical Paths under _main in BANK16

    None.

Critical Paths under _InterMSSP in BANK16

    None.

Critical Paths under _main in BANK17

    None.

Critical Paths under _InterMSSP in BANK17

    None.

Critical Paths under _main in BANK18

    None.

Critical Paths under _InterMSSP in BANK18

    None.

Critical Paths under _main in BANK19

    None.

Critical Paths under _InterMSSP in BANK19

    None.

Critical Paths under _main in BANK20

    None.

Critical Paths under _InterMSSP in BANK20

    None.

Critical Paths under _main in BANK21

    None.

Critical Paths under _InterMSSP in BANK21

    None.

Critical Paths under _main in BANK22

    None.

Critical Paths under _InterMSSP in BANK22

    None.

Critical Paths under _main in BANK23

    None.

Critical Paths under _InterMSSP in BANK23

    None.

Critical Paths under _main in BANK24

    None.

Critical Paths under _InterMSSP in BANK24

    None.

Critical Paths under _main in BANK25

    None.

Critical Paths under _InterMSSP in BANK25

    None.

Call Graph Tables:

 ---------------------------------------------------------------------------------
 (Depth) Function   	        Calls       Base Space   Used Autos Params    Refs
 ---------------------------------------------------------------------------------
 (0) _main                                                 0     0      0    1099
                      _InitCalibrate
                               _init
                          _initCargo
                         _initComand
                     _initComu_types
                          _initTrain
                            _io_init
                         _isSPI1read
                         _read_train
                  _setComunicateMode
                    _setSPI2sendData
                           _spi_init
 ---------------------------------------------------------------------------------
 (1) _spi_init                                             0     0      0       6
                          _spi1_init
                          _spi2_init
 ---------------------------------------------------------------------------------
 (2) _spi2_init                                            2     2      0       3
                                              0 BANK0      2     2      0
 ---------------------------------------------------------------------------------
 (2) _spi1_init                                            2     2      0       3
                                              0 BANK0      2     2      0
 ---------------------------------------------------------------------------------
 (1) _setSPI2sendData                                      4     4      0       0
                                              0 BANK0      4     4      0
 ---------------------------------------------------------------------------------
 (1) _setComunicateMode                                    4     4      0     867
                                              8 BANK1      4     4      0
                 _Calibrate_download
                          _readCargo
 ---------------------------------------------------------------------------------
 (2) _readCargo                                           12    12      0     285
                                              1 BANK0     12    12      0
                       _clutchaction
                       _restartCargo
 ---------------------------------------------------------------------------------
 (3) _clutchaction                                         1     1      0      31
                                              0 BANK0      1     1      0
 ---------------------------------------------------------------------------------
 (2) _Calibrate_download                                  13    13      0     421
                                              7 BANK0      5     5      0
                                              0 BANK1      8     8      0
                      _InitCalibrate
                         _isEndpoint
 ---------------------------------------------------------------------------------
 (3) _isEndpoint                                           6     6      0      71
                                              1 BANK0      6     6      0
              _setSPI1sendDataManual
 ---------------------------------------------------------------------------------
 (4) _setSPI1sendDataManual                                1     1      0      31
                                              0 BANK0      1     1      0
 ---------------------------------------------------------------------------------
 (3) _InitCalibrate                                        0     0      0       0
 ---------------------------------------------------------------------------------
 (1) _read_train                                           4     4      0      65
                                              0 BANK0      4     4      0
 ---------------------------------------------------------------------------------
 (1) _isSPI1read                                           0     0      0       0
 ---------------------------------------------------------------------------------
 (1) _io_init                                              0     0      0       0
 ---------------------------------------------------------------------------------
 (1) _initTrain                                            3     3      0      31
                                              9 BANK0      3     3      0
                          _isTrainSt
                     _resetTrainData
 ---------------------------------------------------------------------------------
 (2) _resetTrainData                                       0     0      0       0
                       _restartCargo
 ---------------------------------------------------------------------------------
 (3) _restartCargo                                         0     0      0       0
 ---------------------------------------------------------------------------------
 (2) _isTrainSt                                            9     9      0      31
                                              0 BANK0      9     9      0
 ---------------------------------------------------------------------------------
 (1) _initComu_types                                       1     1      0       0
                                              0 BANK0      1     1      0
 ---------------------------------------------------------------------------------
 (1) _initComand                                           1     1      0       0
                                              0 BANK0      1     1      0
 ---------------------------------------------------------------------------------
 (1) _initCargo                                            0     0      0       0
 ---------------------------------------------------------------------------------
 (1) _init                                                 0     0      0     130
                              _clear
                         _initbuffer
 ---------------------------------------------------------------------------------
 (2) _initbuffer                                           4     4      0     130
                                              0 BANK0      4     4      0
 ---------------------------------------------------------------------------------
 (2) _clear                                                0     0      0       0
 ---------------------------------------------------------------------------------
 Estimated maximum stack depth 4
 ---------------------------------------------------------------------------------
 (Depth) Function   	        Calls       Base Space   Used Autos Params    Refs
 ---------------------------------------------------------------------------------
 (5) _InterMSSP                                            5     5      0       0
                                              2 COMMON     5     5      0
                    _setSPI1sendData
 ---------------------------------------------------------------------------------
 (6) _setSPI1sendData                                      2     2      0       0
                                              0 COMMON     2     2      0
                         _isSPI2read
 ---------------------------------------------------------------------------------
 (7) _isSPI2read                                           0     0      0       0
 ---------------------------------------------------------------------------------
 Estimated maximum stack depth 7
 ---------------------------------------------------------------------------------

 Call Graph Graphs:

 _main (ROOT)
   _InitCalibrate
   _init
     _clear
     _initbuffer
   _initCargo
   _initComand
   _initComu_types
   _initTrain
     _isTrainSt
     _resetTrainData
       _restartCargo
   _io_init
   _isSPI1read
   _read_train
   _setComunicateMode
     _Calibrate_download
       _InitCalibrate
       _isEndpoint
         _setSPI1sendDataManual
     _readCargo
       _clutchaction
       _restartCargo
   _setSPI2sendData
   _spi_init
     _spi1_init
     _spi2_init

 _InterMSSP (ROOT)
   _setSPI1sendData
     _isSPI2read

 Address spaces:
Name               Size   Autos  Total    Cost      Usage
BIGRAM             7F0      0       0       0        0.0%
EEDATA             100      0       0       0        0.0%
NULL                 0      0       0       0        0.0%
CODE                 0      0       0       0        0.0%
BITCOMMON            E      0       1       1        7.1%
BITSFR0              0      0       0       1        0.0%
SFR0                 0      0       0       1        0.0%
COMMON               E      7       8       2       57.1%
BITSFR1              0      0       0       2        0.0%
SFR1                 0      0       0       2        0.0%
BITSFR2              0      0       0       3        0.0%
SFR2                 0      0       0       3        0.0%
STACK                0      0       0       3        0.0%
BITBANK0            50      0       1       4        1.3%
BITSFR3              0      0       0       4        0.0%
SFR3                 0      0       0       4        0.0%
BANK0               50      D      50       5      100.0%
BITSFR4              0      0       0       5        0.0%
SFR4                 0      0       0       5        0.0%
BITBANK1            50      0       0       6        0.0%
BITSFR5              0      0       0       6        0.0%
SFR5                 0      0       0       6        0.0%
BANK1               50      C      34       7       65.0%
BITSFR6              0      0       0       7        0.0%
SFR6                 0      0       0       7        0.0%
BITBANK2            50      0       0       8        0.0%
BITSFR7              0      0       0       8        0.0%
SFR7                 0      0       0       8        0.0%
BANK2               50      0       0       9        0.0%
BITSFR8              0      0       0       9        0.0%
SFR8                 0      0       0       9        0.0%
BITBANK3            50      0       0      10        0.0%
BITSFR9              0      0       0      10        0.0%
SFR9                 0      0       0      10        0.0%
BANK3               50      0       0      11        0.0%
BITSFR10             0      0       0      11        0.0%
SFR10                0      0       0      11        0.0%
BITBANK4            50      0       0      12        0.0%
BITSFR11             0      0       0      12        0.0%
SFR11                0      0       0      12        0.0%
BANK4               50      0       0      13        0.0%
BITSFR12             0      0       0      13        0.0%
SFR12                0      0       0      13        0.0%
BITSFR13             0      0       0      14        0.0%
SFR13                0      0       0      14        0.0%
ABS                  0      0      8C      14        0.0%
BITBANK5            50      0       0      15        0.0%
BITSFR14             0      0       0      15        0.0%
SFR14                0      0       0      15        0.0%
BANK5               50      0       0      16        0.0%
BITSFR15             0      0       0      16        0.0%
SFR15                0      0       0      16        0.0%
BITBANK6            50      0       0      17        0.0%
BITSFR16             0      0       0      17        0.0%
SFR16                0      0       0      17        0.0%
BANK6               50      0       0      18        0.0%
BITSFR17             0      0       0      18        0.0%
SFR17                0      0       0      18        0.0%
BITBANK7            50      0       0      19        0.0%
BITSFR18             0      0       0      19        0.0%
SFR18                0      0       0      19        0.0%
BANK7               50      0       0      20        0.0%
BITSFR19             0      0       0      20        0.0%
SFR19                0      0       0      20        0.0%
BITBANK8            50      0       0      21        0.0%
BITSFR20             0      0       0      21        0.0%
SFR20                0      0       0      21        0.0%
BANK8               50      0       0      22        0.0%
BITSFR21             0      0       0      22        0.0%
SFR21                0      0       0      22        0.0%
BITBANK9            50      0       0      23        0.0%
BITSFR22             0      0       0      23        0.0%
SFR22                0      0       0      23        0.0%
BANK9               50      0       0      24        0.0%
BITSFR23             0      0       0      24        0.0%
SFR23                0      0       0      24        0.0%
BITBANK10           50      0       0      25        0.0%
BITSFR24             0      0       0      25        0.0%
SFR24                0      0       0      25        0.0%
BANK10              50      0       0      26        0.0%
BITSFR25             0      0       0      26        0.0%
SFR25                0      0       0      26        0.0%
BITBANK11           50      0       0      27        0.0%
BITSFR26             0      0       0      27        0.0%
SFR26                0      0       0      27        0.0%
BITSFR27             0      0       0      28        0.0%
SFR27                0      0       0      28        0.0%
DATA                 0      0      8C      28        0.0%
BANK11              50      0       0      29        0.0%
BITSFR28             0      0       0      29        0.0%
SFR28                0      0       0      29        0.0%
BITBANK12           50      0       0      30        0.0%
BITSFR29             0      0       0      30        0.0%
SFR29                0      0       0      30        0.0%
BANK12              50      0       0      31        0.0%
BITSFR30             0      0       0      31        0.0%
SFR30                0      0       0      31        0.0%
BITBANK13           50      0       0      32        0.0%
BITSFR31             0      0       0      32        0.0%
SFR31                0      0       0      32        0.0%
BANK13              50      0       0      33        0.0%
BITBANK14           50      0       0      34        0.0%
BANK14              50      0       0      35        0.0%
BITBANK15           50      0       0      36        0.0%
BANK15              40      0       0      37        0.0%
BITBANK16           50      0       0      38        0.0%
BANK16               0      0       0      39        0.0%
BITBANK17           50      0       0      40        0.0%
BANK17               0      0       0      41        0.0%
BITBANK18           50      0       0      42        0.0%
BANK18               0      0       0      43        0.0%
BITBANK19           50      0       0      44        0.0%
BANK19               0      0       0      45        0.0%
BITBANK20           50      0       0      46        0.0%
BANK20               0      0       0      47        0.0%
BITBANK21           50      0       0      48        0.0%
BANK21               0      0       0      49        0.0%
BITBANK22           50      0       0      50        0.0%
BANK22               0      0       0      51        0.0%
BITBANK23           50      0       0      52        0.0%
BANK23               0      0       0      53        0.0%
BITBANK24           50      0       0      54        0.0%
BANK24               0      0       0      55        0.0%
BITBANK25           20      0       0      56        0.0%
BANK25               0      0       0      57        0.0%


Microchip Technology PIC Macro Assembler V1.45 build -152302408 
Symbol Table                                                                                   Mon May 07 04:35:54 2018

                  _InitCalibrate 057A                                pc 0002                      __CFG_CP$OFF 0000  
                 _cargoLengthnuf 0045                      __CFG_LVP$ON 0000                              l123 032F  
                            l315 05F0                              l422 03C6                              l356 03FA  
                            l464 016F                              l466 017A                              l388 011F  
                   __CFG_CPD$OFF 0000                              u825 049B                              u915 014C  
                            u845 0410                              u945 01C3                              u875 00F3  
                            u955 01D3                              u885 0103                              u965 01E3  
                            u895 0113                              u975 020C                              u995 0335  
                            wreg 0009          setComunicateMode@m_type 00D1                             S2782 0590  
                           S2778 0541         Calibrate_download@bufint 00CD                             l2400 0189  
                           l2410 019E                             l2402 018E                             l2236 03E4  
                           l2340 00B8                             l2420 01A8                             l2412 01A0  
                           l2350 00E2                             l2342 00C9                             l2334 00AA  
                           l2430 01DA                             l2414 01A2                             l2520 032A  
                           l2344 00D0                             l2432 01ED                             l2424 01B1  
                           l2416 01A4                             l2408 019C                             l2610 0382  
                           l2362 0124                             l2354 00FA                             l2346 00DA  
                           l2370 012D                             l2418 01A6                             l2268 0434  
                           l2604 0369                             l2364 0125                             l2356 010A  
                           l2372 013C                             l2428 01CA                             l2436 01F2  
                           l2606 037C                             l2358 011D                             l2438 0201  
                           l2622 04C1                             l2560 05C0                             l2650 045D  
                           l2642 044D                             l2652 0460                             l2398 0184  
                           l2574 03A2                             l2584 03AC                             l2594 034D  
                           l2578 03A7                             l2586 03C0                             l2596 0356  
                           l2780 0132                             l2598 0363                             l2774 03B2  
                           l2784 036E                             l2776 01F7                             u1005 05BC  
                           u1015 0396                             _WPUA 020C                             _WPUB 020D  
                           _WPUC 020E                     __CFG_WRT$OFF 0000                    __CFG_FCMEN$ON 0000  
                  ?_clutchaction 0070                             _main 0436                             _init 0464  
                           fsr0h 0005                             fsr1h 0007                             indf0 0000  
                           fsr0l 0004                             indf1 0001                             fsr1l 0006  
                           btemp 007E                    __CFG_BOREN$ON 0000                             start 0052  
                  __CFG_CSWEN$ON 0000                    __CFG_MCLRE$ON 0000                   ?_InitCalibrate 0070  
                          ?_main 0070                            ?_init 0070                    __CFG_WDTE$OFF 0000  
                 __CFG_DEBUG$OFF 0000                            u42_25 05D6                            _PORTA 000C  
                          _PORTB 000D                            _PORTC 000E                            _TRISA 008C  
                          _TRISB 008D                            _TRISC 008E               setComunicateMode@i 00D2  
 __size_of_setSPI1sendDataManual 0006    __end_of_setSPI1sendDataManual 060C                            _clear 05C2  
                __end_of_io_init 0611                   __pbitbssCOMMON 03B8                   ??_clutchaction 0060  
                 __CFG_BORV$HIGH 0000                            status 0003                            wtemp0 007E  
                __initialization 0054                     __end_of_main 0464                     __end_of_init 048F  
                         ??_main 006D                           ??_init 0064                           ?_clear 0070  
                         _ANSELA 018C                           _ANSELB 018D                           _ANSELC 018E  
                         _RA2PPS 0E92                           _RC2PPS 0EA2                           i1l2004 002A  
                         i1l2016 004A                           _RB7PPS 0E9F                           i1l1660 05DA  
                         i1l1804 051E         __size_of_setSPI1sendData 0022               __size_of_InterMSSP 004E  
                ??_InitCalibrate 0060                __end_of_VENDER_ID 0617                   __CFG_PWRTE$OFF 0000  
       __size_of_setSPI2sendData 0024          __size_of_resetTrainData 0009      __size_of_Calibrate_download 00D5  
                 __CFG_STVREN$ON 0000                           _count1 0057                           _count2 0055  
                         _readNG 0059                           _readOK 005A          __size_of_initComu_types 006D  
                      ??_io_init 0060                 __end_of_spi_init 05FD                      initbuffer@i 0062  
                   isTrainSt@buf 0068          __end_of__initialization 007D            Calibrate_download@buf 00CC  
                 __pcstackCOMMON 0070                     __pidataBANK0 0611               __end_of_MACHINE_ID 0615  
                  __end_of_clear 05CF                     __pbitnvBANK0 0368             __end_of_clutchaction 05F3  
              __end_of_InterMSSP 0052                  __CFG_LPBOREN$ON 0000                          ??_clear 0060  
                     __pbssBANK0 0020                       __pbssBANK1 00A0               __size_of_isTrainSt 0036  
            clutchaction@comannd 0060               __size_of_initCargo 0019               __size_of_readCargo 00CC  
                _startTrainBytes 003F               __size_of_initTrain 0048                       _isSPI1read 05B5  
                     _isSPI2read 05CF                       __pmaintext 0436               __size_of_spi1_init 0020  
             __size_of_spi2_init 0022                  __CFG_PPS1WAY$ON 0000                ??_setSPI1sendData 0070  
                     __pintentry 0004  Calibrate_download@spi_Read_data 00CF                ??_setSPI2sendData 0060  
            __CFG_RSTOSC$HFINT32 0000                       _isEndpoint 03C7                     _isCalibrated 03BD  
                        _SSP1BUF 0211                          _SSP2BUF 0219                       _comu_types 00A0  
                 _resetTrainData 05FD                       _initComand 028F                        ?_spi_init 0070  
              __end_of_isTrainSt 0436                       _initbuffer 048F                   _initComu_types 0222  
             isEndpoint@spi2data 0066                          __ptext1 05F3                          __ptext2 04DD  
                        __ptext3 0521                          __ptext4 04B9                          __ptext5 0389  
                        __ptext6 0156                          __ptext7 05E8                          __ptext8 0081  
              __end_of_initCargo 057A                          __ptext9 03C7                       _read_train 0344  
                        _command 00B2                __end_of_readCargo 0222                          _counta2 004B  
                        _io_init 060C                __end_of_initTrain 0344                    ?_restartCargo 0070  
              __end_of_spi1_init 0541                __end_of_spi2_init 04FF                          _st_type 005E  
                        clrloop0 05DD            _setSPI1sendDataManual 0606             end_of_initialization 007D  
         __end_of_resetTrainData 0606                      ?_isSPI1read 0070                      ?_isSPI2read 0070  
          __size_of_clutchaction 000B                       ??_spi_init 0062                        _VENDER_ID 0615  
               readCargo@buflong 0066           __end_of_initComu_types 028F                   spi1_init@dummy 0061  
                    ?_isEndpoint 0070                   ??_restartCargo 0060                        _TRISBbits 008D  
                      _TRISCbits 008E                 __CFG_FEXTOSC$OFF 0000                   spi2_init@dummy 0061  
                   _clutchaction 05E8                  ?_resetTrainData 0070       __end_of_Calibrate_download 0156  
                    ?_initComand 0070            __end_of_InitCalibrate 0590                  ?_initComu_types 0070  
                    ?_initbuffer 0070                      ?_read_train 0070              __size_of_isSPI1read 000D  
            __size_of_isSPI2read 000D              start_initialization 0054           ?_setSPI1sendDataManual 0070  
                      _InterMSSP 0004                   _isEndPointTrig 0368                  _setSPI1sendData 04FF  
                _setSPI2sendData 04B9              __size_of_isEndpoint 0039                      __pdataBANK0 006E  
              _setComunicateMode 0389               ?_setComunicateMode 0070                      __pbssBIGRAM 24F0  
                      ___latbits 0003                    __pcstackBANK0 0060                    __pcstackBANK1 00C8  
            ??_setComunicateMode 00D0              __size_of_initComand 006D                       ?_InterMSSP 0070  
                      _calibdata 0030              __size_of_initbuffer 002A                        _cargoData 0020  
              _cargoWorkingCount 00C4              __size_of_read_train 0045             __end_of_restartCargo 05B5  
          _spi1_send_buffer_data 24F0        Calibrate_download@buflong 00C8        __end_of_setComunicateMode 03C7  
        readCargo@spi1_Read_data 006C                __size_of_spi_init 000A                        __pswtext1 0541  
                      __pswtext2 0590                        _isMycargo 0369                         ?_io_init 0070  
                      _isTrainSt 0400                        _countabuf 0051                        _initCargo 0561  
                      _readCargo 0156                        _linkAngle 0043          __end_of_setSPI1sendData 0521  
                      _initTrain 02FC                   __size_of_clear 000D          __end_of_setSPI2sendData 04DD  
                      _spi1_init 0521                        _spi2_init 04DD                         _LATAbits 010C  
                   ??_isSPI1read 0060                     ??_isSPI2read 0070                        clear_ram0 05DC  
                       _PIE0bits 0090                         _PIE1bits 0091                         _PIE2bits 0092  
                      _send_data 005D                         _PIR0bits 0010                         _PIR1bits 0011  
                       _PIR2bits 0012                  readCargo@bufint 006A                     ??_isEndpoint 0061  
                     ?_isTrainSt 0070               __end_of_isSPI1read 05C2               __end_of_isSPI2read 05DC  
                     ?_initCargo 0070                    _SSP1SSPPSbits 0E22                       ?_readCargo 0070  
                     ?_initTrain 0070                      ??_InterMSSP 0072                    _SSP2SSPPSbits 0E1F  
               ??_resetTrainData 0060                       ?_spi1_init 0070                       ?_spi2_init 0070  
               ??_initComu_types 0060               __end_of_isEndpoint 0400                     ??_initComand 0060  
     __size_of_setComunicateMode 003E                     ??_initbuffer 0060                 _spi1_buffer_data 26F0  
                   ??_read_train 0060               _Calibrate_download 0081          ??_setSPI1sendDataManual 0060  
                 _workingcounta0 03BB                   _workingcounta1 03BA                   _workingcounta2 03B9  
                 _workingcounta3 03B8                 __size_of_io_init 0005                       _MACHINE_ID 0613  
                    _read_count1 0053                      _read_count2 004F              ?_Calibrate_download 0070  
               ?_setSPI1sendData 0070                         __ptext10 0606                         __ptext11 057A  
                       __ptext20 028F                         __ptext12 0344                         __ptext21 0561  
                       __ptext13 05B5                         __ptext22 0464                         __ptext14 060C  
                       __ptext23 048F                         __ptext15 02FC                         __ptext24 05C2  
                       __ptext16 05FD                         __ptext17 05A4                         __ptext26 04FF  
                       __ptext18 0400                         __ptext27 05CF                         __ptext19 0222  
                   _SSP1CON1bits 0215                     _SSP1CON3bits 0217               __end_of_initComand 02FC  
               ?_setSPI2sendData 0070                     _SSP2CON1bits 021D                   _spi1_Read_data 005C  
                   _SSP2CON3bits 021F            __size_of_restartCargo 0011                         _linkInfo 0039  
                  __size_of_main 002E                    __size_of_init 002B               __end_of_initbuffer 04B9  
                 _spi2_Read_data 005B               __end_of_read_train 0389             ??_Calibrate_download 0067  
                    _isreadTrain 03BC                         _spi_init 05F3                         int$flags 007E  
                       _trainPos 004D                   _spi2_Send_data 005F                     _SSP1STATbits 0214  
               _spi2_buffer_data 25F0                     _SSP2STATbits 021C                    _st_dataLength 006E  
                     _INLVLAbits 038C                       _INLVLBbits 038D                       _INLVLCbits 038E  
                    ??_isTrainSt 0060                      _OSCTUNEbits 091E                       _INTCONbits 000B  
                    ??_initCargo 0060                     _restartCargo 05A4                      ??_readCargo 0061  
                    ??_initTrain 0069           __size_of_InitCalibrate 0016                      _send_count1 0047  
                       intlevel1 0000                      ??_spi1_init 0060                      ??_spi2_init 0060  
              __CFG_CLKOUTEN$OFF 0000                       _OSCFRQbits 091F                    __pstringtext1 0613  
                  __pstringtext2 0615        setSPI1sendDataManual@data 0060                 read_train@bufint 0062  
                _spi1_send_count 0049  
